(dp1
S'files'
p2
(dp3
S'_home_virtubuntu__local_lib_python2_7_site-packages_pyqtgraph_frozenSupport'
p4
(dp5
S'index'
p6
(dp7
S'html_filename'
p8
S'_home_virtubuntu__local_lib_python2_7_site-packages_pyqtgraph_frozenSupport.html'
p9
sS'name'
p10
S'/home/virtubuntu/.local/lib/python2.7/site-packages/pyqtgraph/frozenSupport'
p11
sS'nums'
p12
ccopy_reg
_reconstructor
p13
(ccoverage.results
Numbers
p14
c__builtin__
object
p15
NtRp16
(dp17
S'n_files'
p18
I1
sS'n_branches'
p19
I0
sS'n_statements'
p20
I36
sS'n_excluded'
p21
I0
sS'n_partial_branches'
p22
I0
sS'n_missing'
p23
I28
sS'n_missing_branches'
p24
I0
sbssS'hash'
p25
S'R\x81=\xe5\xdd\xf0\x1do,Rp9D\xe6X\x10'
p26
ssS'_usr_local_lib_python2_7_dist-packages_numpy_lib_shape_base'
p27
(dp28
g6
(dp29
g8
S'_usr_local_lib_python2_7_dist-packages_numpy_lib_shape_base.html'
p30
sg10
S'/usr/local/lib/python2.7/dist-packages/numpy/lib/shape_base'
p31
sg12
g13
(g14
g15
NtRp32
(dp33
g18
I1
sg19
I0
sg20
I200
sg21
I0
sg22
I0
sg23
I178
sg24
I0
sbssg25
S'{\xddK\xb5\t\x05\x12\xf5Lr\x9bN\x95}\x86\xc5'
p34
ssS'_opt_ros_indigo_lib_python2_7_dist-packages_rqt_gui_main'
p35
(dp36
g6
(dp37
g8
S'_opt_ros_indigo_lib_python2_7_dist-packages_rqt_gui_main.html'
p38
sg10
S'/opt/ros/indigo/lib/python2.7/dist-packages/rqt_gui/main'
p39
sg12
g13
(g14
g15
NtRp40
(dp41
g18
I1
sg19
I0
sg20
I36
sg21
I0
sg22
I0
sg23
I4
sg24
I0
sbssg25
S"\xb8\xc3iK8\x10'\x11\x05\\\xf6\xfc\x9a\xf7\x18\x11"
p42
ssS'_home_virtubuntu_catkin_ws_devel_lib_python2_7_dist-packages_arni_msgs_srv___init__'
p43
(dp44
g6
(dp45
g8
S'_home_virtubuntu_catkin_ws_devel_lib_python2_7_dist-packages_arni_msgs_srv___init__.html'
p46
sg10
S'/home/virtubuntu/catkin_ws/devel/lib/python2.7/dist-packages/arni_msgs/srv/__init__'
p47
sg12
g13
(g14
g15
NtRp48
(dp49
g18
I1
sg19
I0
sg20
I2
sg21
I0
sg22
I0
sg23
I0
sg24
I0
sbssg25
S'R\x13\xe7Z\x03\xfb\x04o\xa6Hv\x80y\xb1u\x12'
p50
ssS'_opt_ros_indigo_lib_python2_7_dist-packages_rqt_gui_ros_plugin_provider'
p51
(dp52
g6
(dp53
g8
S'_opt_ros_indigo_lib_python2_7_dist-packages_rqt_gui_ros_plugin_provider.html'
p54
sg10
S'/opt/ros/indigo/lib/python2.7/dist-packages/rqt_gui/ros_plugin_provider'
p55
sg12
g13
(g14
g15
NtRp56
(dp57
g18
I1
sg19
I0
sg20
I102
sg21
I0
sg22
I0
sg23
I14
sg24
I0
sbssg25
S'S\xe4|\xc7\xdf\xf3\xcc6.`\xc2\xf5\x04\xc86\xf9'
p58
ssS'_usr_local_lib_python2_7_dist-packages_numpy_distutils___init__'
p59
(dp60
g6
(dp61
g8
S'_usr_local_lib_python2_7_dist-packages_numpy_distutils___init__.html'
p62
sg10
S'/usr/local/lib/python2.7/dist-packages/numpy/distutils/__init__'
p63
sg12
g13
(g14
g15
NtRp64
(dp65
g18
I1
sg19
I0
sg20
I27
sg21
I0
sg22
I0
sg23
I14
sg24
I0
sbssg25
S'9X<\xb0\x17\xc14\t\x96q?\x07\xbd,\xd9\xba'
p66
ssS'_home_virtubuntu_catkin_ws_src_arni_arni_gui_src_arni_gui_root_item'
p67
(dp68
g6
(dp69
g8
S'_home_virtubuntu_catkin_ws_src_arni_arni_gui_src_arni_gui_root_item.html'
p70
sg10
S'/home/virtubuntu/catkin_ws/src/arni/arni_gui/src/arni_gui/root_item'
p71
sg12
g13
(g14
g15
NtRp72
(dp73
g18
I1
sg19
I0
sg20
I57
sg21
I0
sg22
I0
sg23
I4
sg24
I0
sbssg25
S'\x9c\xff\x02\xceW\x02\xc2\x81\xde\x031\x05B\x94y\xa3'
p74
ssS'_home_virtubuntu__local_lib_python2_7_site-packages_pyqtgraph_parametertree_ParameterItem'
p75
(dp76
g6
(dp77
g8
S'_home_virtubuntu__local_lib_python2_7_site-packages_pyqtgraph_parametertree_ParameterItem.html'
p78
sg10
S'/home/virtubuntu/.local/lib/python2.7/site-packages/pyqtgraph/parametertree/ParameterItem'
p79
sg12
g13
(g14
g15
NtRp80
(dp81
g18
I1
sg19
I0
sg20
I92
sg21
I0
sg22
I0
sg23
I69
sg24
I0
sbssg25
S';\x0e\xfe\xc9\xc6h\x1d\x98p\x1f\x12\xa5\x02\x18\xb1C'
p82
ssS'_home_virtubuntu__local_lib_python2_7_site-packages_pyqtgraph_exporters_CSVExporter'
p83
(dp84
g6
(dp85
g8
S'_home_virtubuntu__local_lib_python2_7_site-packages_pyqtgraph_exporters_CSVExporter.html'
p86
sg10
S'/home/virtubuntu/.local/lib/python2.7/site-packages/pyqtgraph/exporters/CSVExporter'
p87
sg12
g13
(g14
g15
NtRp88
(dp89
g18
I1
sg19
I0
sg20
I39
sg21
I0
sg22
I0
sg23
I28
sg24
I0
sbssg25
S'\x9d\xdcN\x1e\xfd"\x84\x06\xa8\x0b\xdb\x9b\xdd\x0cR\xc3'
p90
ssS'_opt_ros_indigo_lib_python2_7_dist-packages_std_msgs_msg__ColorRGBA'
p91
(dp92
g6
(dp93
g8
S'_opt_ros_indigo_lib_python2_7_dist-packages_std_msgs_msg__ColorRGBA.html'
p94
sg10
S'/opt/ros/indigo/lib/python2.7/dist-packages/std_msgs/msg/_ColorRGBA'
p95
sg12
g13
(g14
g15
NtRp96
(dp97
g18
I1
sg19
I0
sg20
I62
sg21
I0
sg22
I0
sg23
I43
sg24
I0
sbssg25
S'.@\x94h\x9f#\xdf\xc0a\xeaM0\\\x8a\x81t'
p98
ssS'_opt_ros_indigo_lib_python2_7_dist-packages_std_msgs_msg__ByteMultiArray'
p99
(dp100
g6
(dp101
g8
S'_opt_ros_indigo_lib_python2_7_dist-packages_std_msgs_msg__ByteMultiArray.html'
p102
sg10
S'/opt/ros/indigo/lib/python2.7/dist-packages/std_msgs/msg/_ByteMultiArray'
p103
sg12
g13
(g14
g15
NtRp104
(dp105
g18
I1
sg19
I0
sg20
I143
sg21
I0
sg22
I0
sg23
I123
sg24
I0
sbssg25
S'\x90\x91\xf9\x0bn\xf0\x94\xf1\x1f\x9fk\x11\x9d\xfa\x11\xd4'
p106
ssS'_opt_ros_indigo_lib_python2_7_dist-packages_std_msgs_msg__Int8MultiArray'
p107
(dp108
g6
(dp109
g8
S'_opt_ros_indigo_lib_python2_7_dist-packages_std_msgs_msg__Int8MultiArray.html'
p110
sg10
S'/opt/ros/indigo/lib/python2.7/dist-packages/std_msgs/msg/_Int8MultiArray'
p111
sg12
g13
(g14
g15
NtRp112
(dp113
g18
I1
sg19
I0
sg20
I143
sg21
I0
sg22
I0
sg23
I123
sg24
I0
sbssg25
S'~\x9b \x83\xefN\xe1\xf1\xfb\xd3l2\xed\xac;\xd2'
p114
ssS'_home_virtubuntu__local_lib_python2_7_site-packages_pyqtgraph_graphicsItems_ViewBox_ViewBoxMenu'
p115
(dp116
g6
(dp117
g8
S'_home_virtubuntu__local_lib_python2_7_site-packages_pyqtgraph_graphicsItems_ViewBox_ViewBoxMenu.html'
p118
sg10
S'/home/virtubuntu/.local/lib/python2.7/site-packages/pyqtgraph/graphicsItems/ViewBox/ViewBoxMenu'
p119
sg12
g13
(g14
g15
NtRp120
(dp121
g18
I1
sg19
I0
sg20
I188
sg21
I0
sg22
I0
sg23
I58
sg24
I0
sbssg25
S'\xf7\x8b\x00M\xfch\xe4\xc6@\xe4\xca%\xdc\x98\xa3\xe5'
p122
ssS'_home_virtubuntu__local_lib_python2_7_site-packages_pyqtgraph_graphicsItems_ViewBox_ViewBox'
p123
(dp124
g6
(dp125
g8
S'_home_virtubuntu__local_lib_python2_7_site-packages_pyqtgraph_graphicsItems_ViewBox_ViewBox.html'
p126
sg10
S'/home/virtubuntu/.local/lib/python2.7/site-packages/pyqtgraph/graphicsItems/ViewBox/ViewBox'
p127
sg12
g13
(g14
g15
NtRp128
(dp129
g18
I1
sg19
I0
sg20
I880
sg21
I0
sg22
I0
sg23
I385
sg24
I0
sbssg25
S'~~\xef\xd2@!PB\xb8\x0f$\xdaI:z\x8a'
p130
ssS'_home_virtubuntu__local_lib_python2_7_site-packages_pyqtgraph_python2_3'
p131
(dp132
g6
(dp133
g8
S'_home_virtubuntu__local_lib_python2_7_site-packages_pyqtgraph_python2_3.html'
p134
sg10
S'/home/virtubuntu/.local/lib/python2.7/site-packages/pyqtgraph/python2_3'
p135
sg12
g13
(g14
g15
NtRp136
(dp137
g18
I1
sg19
I0
sg20
I42
sg21
I0
sg22
I0
sg23
I30
sg24
I0
sbssg25
S'\x145\xd4\xd0\x90\xdf\xc7e\x89\xe4\x83\xa4\xdb\xad4P'
p138
ssS'_opt_ros_indigo_lib_python2_7_dist-packages_qt_gui_plugin_descriptor'
p139
(dp140
g6
(dp141
g8
S'_opt_ros_indigo_lib_python2_7_dist-packages_qt_gui_plugin_descriptor.html'
p142
sg10
S'/opt/ros/indigo/lib/python2.7/dist-packages/qt_gui/plugin_descriptor'
p143
sg12
g13
(g14
g15
NtRp144
(dp145
g18
I1
sg19
I0
sg20
I19
sg21
I0
sg22
I0
sg23
I0
sg24
I0
sbssg25
S'\xbd\xb7\xde\x95g\x07w\xc4g\x12\rt\x9e"rn'
p146
ssS'_opt_ros_indigo_lib_python2_7_dist-packages_roslib_manifestlib'
p147
(dp148
g6
(dp149
g8
S'_opt_ros_indigo_lib_python2_7_dist-packages_roslib_manifestlib.html'
p150
sg10
S'/opt/ros/indigo/lib/python2.7/dist-packages/roslib/manifestlib'
p151
sg12
g13
(g14
g15
NtRp152
(dp153
g18
I1
sg19
I0
sg20
I316
sg21
I0
sg22
I0
sg23
I252
sg24
I0
sbssg25
S'F\xd2\x16N\xe5G\xa0\xa6"a/g \x9e\'\xf7'
p154
ssS'_usr_local_lib_python2_7_dist-packages_numpy_distutils_command_install_headers'
p155
(dp156
g6
(dp157
g8
S'_usr_local_lib_python2_7_dist-packages_numpy_distutils_command_install_headers.html'
p158
sg10
S'/usr/local/lib/python2.7/dist-packages/numpy/distutils/command/install_headers'
p159
sg12
g13
(g14
g15
NtRp160
(dp161
g18
I1
sg19
I0
sg20
I21
sg21
I0
sg22
I0
sg23
I16
sg24
I0
sbssg25
S'\x7f\x9bCr~s\x89V?\x8a\xbc;\xda\x96\xeb\x99'
p162
ssS'_home_virtubuntu_catkin_ws_src_arni_arni_core_src_arni_core_helper'
p163
(dp164
g6
(dp165
g8
S'_home_virtubuntu_catkin_ws_src_arni_arni_core_src_arni_core_helper.html'
p166
sg10
S'/home/virtubuntu/catkin_ws/src/arni/arni_core/src/arni_core/helper'
p167
sg12
g13
(g14
g15
NtRp168
(dp169
g18
I1
sg19
I0
sg20
I89
sg21
I0
sg22
I0
sg23
I67
sg24
I0
sbssg25
S'\xb1\xd3\x89m\x16\xac{AF\x93\xb5\xd92\x07\xda\x0b'
p170
ssS'_home_virtubuntu__local_lib_python2_7_site-packages_pyqtgraph_widgets_FileDialog'
p171
(dp172
g6
(dp173
g8
S'_home_virtubuntu__local_lib_python2_7_site-packages_pyqtgraph_widgets_FileDialog.html'
p174
sg10
S'/home/virtubuntu/.local/lib/python2.7/site-packages/pyqtgraph/widgets/FileDialog'
p175
sg12
g13
(g14
g15
NtRp176
(dp177
g18
I1
sg19
I0
sg20
I8
sg21
I0
sg22
I0
sg23
I3
sg24
I0
sbssg25
S'\xf7\x11\x86\xc5\xd6\x12\x16\xf4\xfaY\xf3\xaf\xfe\xae!g'
p178
ssS'_opt_ros_indigo_lib_python2_7_dist-packages_qt_gui_cpp_ros_pluginlib_plugin_provider'
p179
(dp180
g6
(dp181
g8
S'_opt_ros_indigo_lib_python2_7_dist-packages_qt_gui_cpp_ros_pluginlib_plugin_provider.html'
p182
sg10
S'/opt/ros/indigo/lib/python2.7/dist-packages/qt_gui_cpp/ros_pluginlib_plugin_provider'
p183
sg12
g13
(g14
g15
NtRp184
(dp185
g18
I1
sg19
I0
sg20
I46
sg21
I0
sg22
I0
sg23
I11
sg24
I0
sbssg25
S"f\xb9\x1ei\xfc\xd4T\x1d\xedT*&'r.r"
p186
ssS'_usr_local_lib_python2_7_dist-packages_numpy_testing_decorators'
p187
(dp188
g6
(dp189
g8
S'_usr_local_lib_python2_7_dist-packages_numpy_testing_decorators.html'
p190
sg10
S'/usr/local/lib/python2.7/dist-packages/numpy/testing/decorators'
p191
sg12
g13
(g14
g15
NtRp192
(dp193
g18
I1
sg19
I0
sg20
I70
sg21
I0
sg22
I0
sg23
I62
sg24
I0
sbssg25
S'\xe1&\xddU\xfd\xf0\x90\xf7\xbc\xdb\xbf\xbc\xf67:\xde'
p194
ssS'_opt_ros_indigo_lib_python2_7_dist-packages_rospy_impl_tcpros_service'
p195
(dp196
g6
(dp197
g8
S'_opt_ros_indigo_lib_python2_7_dist-packages_rospy_impl_tcpros_service.html'
p198
sg10
S'/opt/ros/indigo/lib/python2.7/dist-packages/rospy/impl/tcpros_service'
p199
sg12
g13
(g14
g15
NtRp200
(dp201
g18
I1
sg19
I0
sg20
I313
sg21
I0
sg22
I0
sg23
I184
sg24
I0
sbssg25
S'ek\xd7\xf6\xa5\x17Qv\xf3\x12h\xd6\x85B\x17\xf5'
p202
ssS'_usr_local_lib_python2_7_dist-packages_numpy_polynomial_polynomial'
p203
(dp204
g6
(dp205
g8
S'_usr_local_lib_python2_7_dist-packages_numpy_polynomial_polynomial.html'
p206
sg10
S'/usr/local/lib/python2.7/dist-packages/numpy/polynomial/polynomial'
p207
sg12
g13
(g14
g15
NtRp208
(dp209
g18
I1
sg19
I0
sg20
I302
sg21
I0
sg22
I0
sg23
I268
sg24
I0
sbssg25
S'F\xe6\x83\xabo\xb5{\n\x08\x11\x9de5h\xd1\xd4'
p210
ssS'_usr_local_lib_python2_7_dist-packages_numpy_lib_scimath'
p211
(dp212
g6
(dp213
g8
S'_usr_local_lib_python2_7_dist-packages_numpy_lib_scimath.html'
p214
sg10
S'/usr/local/lib/python2.7/dist-packages/numpy/lib/scimath'
p215
sg12
g13
(g14
g15
NtRp216
(dp217
g18
I1
sg19
I0
sg20
I55
sg21
I0
sg22
I0
sg23
I35
sg24
I0
sbssg25
S'~\xe4;\xd08/\xd07\xa4\xde6}\xfe\xf2\xed\x0e'
p218
ssS'_home_virtubuntu__local_lib_python2_7_site-packages_pyqtgraph_widgets_BusyCursor'
p219
(dp220
g6
(dp221
g8
S'_home_virtubuntu__local_lib_python2_7_site-packages_pyqtgraph_widgets_BusyCursor.html'
p222
sg10
S'/home/virtubuntu/.local/lib/python2.7/site-packages/pyqtgraph/widgets/BusyCursor'
p223
sg12
g13
(g14
g15
NtRp224
(dp225
g18
I1
sg19
I0
sg20
I11
sg21
I0
sg22
I0
sg23
I5
sg24
I0
sbssg25
S"\xb5\x08\x90\xb3\xd4\x05'\xc3o\xba\xd0\x8b\x1b\xa5\x00\xa6"
p226
ssS'_opt_ros_indigo_lib_python2_7_dist-packages_std_msgs_msg__UInt8'
p227
(dp228
g6
(dp229
g8
S'_opt_ros_indigo_lib_python2_7_dist-packages_std_msgs_msg__UInt8.html'
p230
sg10
S'/opt/ros/indigo/lib/python2.7/dist-packages/std_msgs/msg/_UInt8'
p231
sg12
g13
(g14
g15
NtRp232
(dp233
g18
I1
sg19
I0
sg20
I49
sg21
I0
sg22
I0
sg23
I30
sg24
I0
sbssg25
S'\x8c\x8e\x00\x8d m\xff\x83&\xe9@\x1e$\xf9\xa5\xff'
p234
ssS'_home_virtubuntu__local_lib_python2_7_site-packages_pyqtgraph_imageview___init__'
p235
(dp236
g6
(dp237
g8
S'_home_virtubuntu__local_lib_python2_7_site-packages_pyqtgraph_imageview___init__.html'
p238
sg10
S'/home/virtubuntu/.local/lib/python2.7/site-packages/pyqtgraph/imageview/__init__'
p239
sg12
g13
(g14
g15
NtRp240
(dp241
g18
I1
sg19
I0
sg20
I1
sg21
I0
sg22
I0
sg23
I0
sg24
I0
sbssg25
S'\xbf+\xae)a>\xa5wrA\xf3\x8e\xcc\xd0.\x18'
p242
ssS'_usr_local_lib_python2_7_dist-packages_numpy_testing_numpytest'
p243
(dp244
g6
(dp245
g8
S'_usr_local_lib_python2_7_dist-packages_numpy_testing_numpytest.html'
p246
sg10
S'/usr/local/lib/python2.7/dist-packages/numpy/testing/numpytest'
p247
sg12
g13
(g14
g15
NtRp248
(dp249
g18
I1
sg19
I0
sg20
I24
sg21
I0
sg22
I0
sg23
I19
sg24
I0
sbssg25
S'\x84\xd9\xaf\xd3\xa8\xe48\xd4\x95=`\xbd\x99\xf6\xb8\x0c'
p250
ssS'_usr_local_lib_python2_7_dist-packages_numpy_distutils_ccompiler'
p251
(dp252
g6
(dp253
g8
S'_usr_local_lib_python2_7_dist-packages_numpy_distutils_ccompiler.html'
p254
sg10
S'/usr/local/lib/python2.7/dist-packages/numpy/distutils/ccompiler'
p255
sg12
g13
(g14
g15
NtRp256
(dp257
g18
I1
sg19
I0
sg20
I329
sg21
I0
sg22
I0
sg23
I266
sg24
I0
sbssg25
S'\x03\x84 \xf6SS0\xa9\xb3k\xc9G\x1bc.\x16'
p258
ssS'_usr_local_lib_python2_7_dist-packages_numpy_core_numerictypes'
p259
(dp260
g6
(dp261
g8
S'_usr_local_lib_python2_7_dist-packages_numpy_core_numerictypes.html'
p262
sg10
S'/usr/local/lib/python2.7/dist-packages/numpy/core/numerictypes'
p263
sg12
g13
(g14
g15
NtRp264
(dp265
g18
I1
sg19
I0
sg20
I381
sg21
I0
sg22
I0
sg23
I98
sg24
I0
sbssg25
S'\x1d\xd9\x98\xbcx\xaf\xc1K\xd7\x11\x92\xe7\xf04=\xf0'
p266
ssS'_home_virtubuntu_catkin_ws_src_arni_arni_gui_src_arni_gui_topic_item'
p267
(dp268
g6
(dp269
g8
S'_home_virtubuntu_catkin_ws_src_arni_arni_gui_src_arni_gui_topic_item.html'
p270
sg10
S'/home/virtubuntu/catkin_ws/src/arni/arni_gui/src/arni_gui/topic_item'
p271
sg12
g13
(g14
g15
NtRp272
(dp273
g18
I1
sg19
I0
sg20
I170
sg21
I0
sg22
I0
sg23
I35
sg24
I0
sbssg25
S'\xf6r\xc4\xe0\xedF\x01_\x15|\xca\xef\x8c\xca\xc2\xca'
p274
ssS'_home_virtubuntu__local_lib_python2_7_site-packages_pyqtgraph_graphicsItems_PlotDataItem'
p275
(dp276
g6
(dp277
g8
S'_home_virtubuntu__local_lib_python2_7_site-packages_pyqtgraph_graphicsItems_PlotDataItem.html'
p278
sg10
S'/home/virtubuntu/.local/lib/python2.7/site-packages/pyqtgraph/graphicsItems/PlotDataItem'
p279
sg12
g13
(g14
g15
NtRp280
(dp281
g18
I1
sg19
I0
sg20
I341
sg21
I0
sg22
I0
sg23
I191
sg24
I0
sbssg25
S'\x08\x1eL@\x8c\x06\xc8f]\xc6\xdcwv\xd1|\xbb'
p282
ssS'_home_virtubuntu__local_lib_python2_7_site-packages_pyqtgraph_Qt'
p283
(dp284
g6
(dp285
g8
S'_home_virtubuntu__local_lib_python2_7_site-packages_pyqtgraph_Qt.html'
p286
sg10
S'/home/virtubuntu/.local/lib/python2.7/site-packages/pyqtgraph/Qt'
p287
sg12
g13
(g14
g15
NtRp288
(dp289
g18
I1
sg19
I0
sg20
I35
sg21
I0
sg22
I0
sg23
I20
sg24
I0
sbssg25
S'w~\xb5\x9a\x05`d\x1a-\xab#\x05Z*\x1c\xbc'
p290
ssS'_home_virtubuntu__local_lib_python2_7_site-packages_pyqtgraph_widgets_GraphicsView'
p291
(dp292
g6
(dp293
g8
S'_home_virtubuntu__local_lib_python2_7_site-packages_pyqtgraph_widgets_GraphicsView.html'
p294
sg10
S'/home/virtubuntu/.local/lib/python2.7/site-packages/pyqtgraph/widgets/GraphicsView'
p295
sg12
g13
(g14
g15
NtRp296
(dp297
g18
I1
sg19
I0
sg20
I254
sg21
I0
sg22
I0
sg23
I112
sg24
I0
sbssg25
S'fE\x05\xa0\x85g\xc5y\x86^\x11Ay9D\x90'
p298
ssS'_usr_local_lib_python2_7_dist-packages_numpy_distutils_mingw32ccompiler'
p299
(dp300
g6
(dp301
g8
S'_usr_local_lib_python2_7_dist-packages_numpy_distutils_mingw32ccompiler.html'
p302
sg10
S'/usr/local/lib/python2.7/dist-packages/numpy/distutils/mingw32ccompiler'
p303
sg12
g13
(g14
g15
NtRp304
(dp305
g18
I1
sg19
I0
sg20
I271
sg21
I0
sg22
I0
sg23
I232
sg24
I0
sbssg25
S'\x8az\xe72\x1f4\xd0\x11\xc9\x9a\xdd\xe0\xe9\xb5\x83\x94'
p306
ssS'_usr_local_lib_python2_7_dist-packages_numpy_oldnumeric_misc'
p307
(dp308
g6
(dp309
g8
S'_usr_local_lib_python2_7_dist-packages_numpy_oldnumeric_misc.html'
p310
sg10
S'/usr/local/lib/python2.7/dist-packages/numpy/oldnumeric/misc'
p311
sg12
g13
(g14
g15
NtRp312
(dp313
g18
I1
sg19
I0
sg20
I14
sg21
I0
sg22
I0
sg23
I2
sg24
I0
sbssg25
S'\x19\x88\x01&\xf5\xc5\x03z\xf6*\xb5\x049L\xf5E'
p314
ssS'_opt_ros_indigo_lib_python2_7_dist-packages_std_msgs_msg__UInt8MultiArray'
p315
(dp316
g6
(dp317
g8
S'_opt_ros_indigo_lib_python2_7_dist-packages_std_msgs_msg__UInt8MultiArray.html'
p318
sg10
S'/opt/ros/indigo/lib/python2.7/dist-packages/std_msgs/msg/_UInt8MultiArray'
p319
sg12
g13
(g14
g15
NtRp320
(dp321
g18
I1
sg19
I0
sg20
I143
sg21
I0
sg22
I0
sg23
I123
sg24
I0
sbssg25
S'\xde)\x18\xde\xee\xbf{9K\xeeG\xee\x8a\xb4\xfc\xf5'
p322
ssS'_opt_ros_indigo_lib_python2_7_dist-packages_rospy_names'
p323
(dp324
g6
(dp325
g8
S'_opt_ros_indigo_lib_python2_7_dist-packages_rospy_names.html'
p326
sg10
S'/opt/ros/indigo/lib/python2.7/dist-packages/rospy/names'
p327
sg12
g13
(g14
g15
NtRp328
(dp329
g18
I1
sg19
I0
sg20
I107
sg21
I0
sg22
I0
sg23
I44
sg24
I0
sbssg25
S'\xdb\x02\xd2\x0e\x8d\x15\xad\x93\xb9\xdf\xa2\xd8$-}\t'
p330
ssS'_home_virtubuntu__local_lib_python2_7_site-packages_pyqtgraph_widgets_ProgressDialog'
p331
(dp332
g6
(dp333
g8
S'_home_virtubuntu__local_lib_python2_7_site-packages_pyqtgraph_widgets_ProgressDialog.html'
p334
sg10
S'/home/virtubuntu/.local/lib/python2.7/site-packages/pyqtgraph/widgets/ProgressDialog'
p335
sg12
g13
(g14
g15
NtRp336
(dp337
g18
I1
sg19
I0
sg20
I64
sg21
I0
sg22
I0
sg23
I50
sg24
I0
sbssg25
S'\x88\xa4\xe0\x8d\xd2CX\x00fc\xd0\x80\x1d\x8a\x9dv'
p338
ssS'_usr_local_lib_python2_7_dist-packages_numpy_oldnumeric_precision'
p339
(dp340
g6
(dp341
g8
S'_usr_local_lib_python2_7_dist-packages_numpy_oldnumeric_precision.html'
p342
sg10
S'/usr/local/lib/python2.7/dist-packages/numpy/oldnumeric/precision'
p343
sg12
g13
(g14
g15
NtRp344
(dp345
g18
I1
sg19
I0
sg20
I149
sg21
I0
sg22
I0
sg23
I43
sg24
I0
sbssg25
S'\xdb\xa4\xda\x86\xd0\xbd\xb3]\x16\xde\x15J\x94\xba\xa7.'
p346
ssS'_usr_local_lib_python2_7_dist-packages_numpy_distutils_command_bdist_rpm'
p347
(dp348
g6
(dp349
g8
S'_usr_local_lib_python2_7_dist-packages_numpy_distutils_command_bdist_rpm.html'
p350
sg10
S'/usr/local/lib/python2.7/dist-packages/numpy/distutils/command/bdist_rpm'
p351
sg12
g13
(g14
g15
NtRp352
(dp353
g18
I1
sg19
I0
sg20
I17
sg21
I0
sg22
I0
sg23
I10
sg24
I0
sbssg25
S'\xa0\x8f!\xd2\x89\x89\x88\x9d\\\xda\xa60\x19\xa0\x13\xea'
p354
ssS'_home_virtubuntu__local_lib_python2_7_site-packages_pyqtgraph_widgets_TreeWidget'
p355
(dp356
g6
(dp357
g8
S'_home_virtubuntu__local_lib_python2_7_site-packages_pyqtgraph_widgets_TreeWidget.html'
p358
sg10
S'/home/virtubuntu/.local/lib/python2.7/site-packages/pyqtgraph/widgets/TreeWidget'
p359
sg12
g13
(g14
g15
NtRp360
(dp361
g18
I1
sg19
I0
sg20
I204
sg21
I0
sg22
I0
sg23
I166
sg24
I0
sbssg25
S'_:\x85\xd1\xeb\xa3\r]\xcb\xa3\xf7\xc1\xfc\xe3\xe9|'
p362
ssS'_usr_local_lib_python2_7_dist-packages_numpy_lib_function_base'
p363
(dp364
g6
(dp365
g8
S'_usr_local_lib_python2_7_dist-packages_numpy_lib_function_base.html'
p366
sg10
S'/usr/local/lib/python2.7/dist-packages/numpy/lib/function_base'
p367
sg12
g13
(g14
g15
NtRp368
(dp369
g18
I1
sg19
I0
sg20
I889
sg21
I0
sg22
I0
sg23
I790
sg24
I0
sbssg25
S'He\x7f\xda\x1d`6YK+\x0f|\xe0VX\xe7'
p370
ssS'_opt_ros_indigo_lib_python2_7_dist-packages_rospy___init__'
p371
(dp372
g6
(dp373
g8
S'_opt_ros_indigo_lib_python2_7_dist-packages_rospy___init__.html'
p374
sg10
S'/opt/ros/indigo/lib/python2.7/dist-packages/rospy/__init__'
p375
sg12
g13
(g14
g15
NtRp376
(dp377
g18
I1
sg19
I0
sg20
I14
sg21
I0
sg22
I0
sg23
I0
sg24
I0
sbssg25
S'k\xf0\xbb\xbd\xba@\x8c\xdc\x82\x99/\x94G\x0b\xd8\x96'
p378
ssS'_opt_ros_indigo_lib_python2_7_dist-packages_qt_gui_main_window'
p379
(dp380
g6
(dp381
g8
S'_opt_ros_indigo_lib_python2_7_dist-packages_qt_gui_main_window.html'
p382
sg10
S'/opt/ros/indigo/lib/python2.7/dist-packages/qt_gui/main_window'
p383
sg12
g13
(g14
g15
NtRp384
(dp385
g18
I1
sg19
I0
sg20
I71
sg21
I0
sg22
I0
sg23
I6
sg24
I0
sbssg25
S',\xa2\xd7\x1f\x06\xda\x0f(\x95X\xc9W\x9a\xc8\xb6\xe4'
p386
ssS'_opt_ros_indigo_lib_python2_7_dist-packages_catkin___init__'
p387
(dp388
g6
(dp389
g8
S'_opt_ros_indigo_lib_python2_7_dist-packages_catkin___init__.html'
p390
sg10
S'/opt/ros/indigo/lib/python2.7/dist-packages/catkin/__init__'
p391
sg12
g13
(g14
g15
NtRp392
(dp393
g18
I1
sg19
I0
sg20
I0
sg21
I0
sg22
I0
sg23
I0
sg24
I0
sbssg25
S'\xca\xf5\x9f\x7f\x88\xdfa\x831|T\x1d\xbc}\xa5v'
p394
ssS'_opt_ros_indigo_lib_python2_7_dist-packages_rqt_topic_topic_info'
p395
(dp396
g6
(dp397
g8
S'_opt_ros_indigo_lib_python2_7_dist-packages_rqt_topic_topic_info.html'
p398
sg10
S'/opt/ros/indigo/lib/python2.7/dist-packages/rqt_topic/topic_info'
p399
sg12
g13
(g14
g15
NtRp400
(dp401
g18
I1
sg19
I0
sg20
I73
sg21
I0
sg22
I0
sg23
I41
sg24
I0
sbssg25
S'S\xd8L\x7f\x88\xf1U\xc9\x14\xe0\n\x8cs\xc8\x1e\x93'
p402
ssS'_opt_ros_indigo_lib_python2_7_dist-packages_qt_gui_plugin_handler_direct'
p403
(dp404
g6
(dp405
g8
S'_opt_ros_indigo_lib_python2_7_dist-packages_qt_gui_plugin_handler_direct.html'
p406
sg10
S'/opt/ros/indigo/lib/python2.7/dist-packages/qt_gui/plugin_handler_direct'
p407
sg12
g13
(g14
g15
NtRp408
(dp409
g18
I1
sg19
I0
sg20
I84
sg21
I0
sg22
I0
sg23
I21
sg24
I0
sbssg25
S'{h\xa9\xba3m\xa4\x0bl\x0e{\xad\x93Q\xc0\x13'
p410
ssS'_opt_ros_indigo_lib_python2_7_dist-packages_std_msgs_msg__UInt16MultiArray'
p411
(dp412
g6
(dp413
g8
S'_opt_ros_indigo_lib_python2_7_dist-packages_std_msgs_msg__UInt16MultiArray.html'
p414
sg10
S'/opt/ros/indigo/lib/python2.7/dist-packages/std_msgs/msg/_UInt16MultiArray'
p415
sg12
g13
(g14
g15
NtRp416
(dp417
g18
I1
sg19
I0
sg20
I143
sg21
I0
sg22
I0
sg23
I123
sg24
I0
sbssg25
S'Bu\x90\x9ei\x0b.\xa9\xce\x84\x1f\xad\xcdb\xfc '
p418
ssS'_opt_ros_indigo_lib_python2_7_dist-packages_rqt_topic___init__'
p419
(dp420
g6
(dp421
g8
S'_opt_ros_indigo_lib_python2_7_dist-packages_rqt_topic___init__.html'
p422
sg10
S'/opt/ros/indigo/lib/python2.7/dist-packages/rqt_topic/__init__'
p423
sg12
g13
(g14
g15
NtRp424
(dp425
g18
I1
sg19
I0
sg20
I0
sg21
I0
sg22
I0
sg23
I0
sg24
I0
sbssg25
S'\xca\xf5\x9f\x7f\x88\xdfa\x831|T\x1d\xbc}\xa5v'
p426
ssS'_usr_local_lib_python2_7_dist-packages_numpy_lib__datasource'
p427
(dp428
g6
(dp429
g8
S'_usr_local_lib_python2_7_dist-packages_numpy_lib__datasource.html'
p430
sg10
S'/usr/local/lib/python2.7/dist-packages/numpy/lib/_datasource'
p431
sg12
g13
(g14
g15
NtRp432
(dp433
g18
I1
sg19
I0
sg20
I178
sg21
I0
sg22
I0
sg23
I140
sg24
I0
sbssg25
S'\xe19m\xe9\xb3\xae\xcc\xc7\xb2\xe4\x9bL,\x9e\x8d\xdd'
p434
ssS'_opt_ros_indigo_lib_python2_7_dist-packages_std_msgs_msg__MultiArrayLayout'
p435
(dp436
g6
(dp437
g8
S'_opt_ros_indigo_lib_python2_7_dist-packages_std_msgs_msg__MultiArrayLayout.html'
p438
sg10
S'/opt/ros/indigo/lib/python2.7/dist-packages/std_msgs/msg/_MultiArrayLayout'
p439
sg12
g13
(g14
g15
NtRp440
(dp441
g18
I1
sg19
I0
sg20
I121
sg21
I0
sg22
I0
sg23
I101
sg24
I0
sbssg25
S'\xdelf>#\xdc\xa8-R\xde\x00@+>\xd5\xcd'
p442
ssS'_opt_ros_indigo_lib_python2_7_dist-packages_rospy_impl_rosout'
p443
(dp444
g6
(dp445
g8
S'_opt_ros_indigo_lib_python2_7_dist-packages_rospy_impl_rosout.html'
p446
sg10
S'/opt/ros/indigo/lib/python2.7/dist-packages/rospy/impl/rosout'
p447
sg12
g13
(g14
g15
NtRp448
(dp449
g18
I1
sg19
I0
sg20
I51
sg21
I0
sg22
I0
sg23
I20
sg24
I0
sbssg25
S'*\x9c\x1c*\xf7\xe8\xf2\xe8\xd1\xca\xe4\x8d(bp\xb1'
p450
ssS'_usr_local_lib_python2_7_dist-packages_numpy_compat__inspect'
p451
(dp452
g6
(dp453
g8
S'_usr_local_lib_python2_7_dist-packages_numpy_compat__inspect.html'
p454
sg10
S'/usr/local/lib/python2.7/dist-packages/numpy/compat/_inspect'
p455
sg12
g13
(g14
g15
NtRp456
(dp457
g18
I1
sg19
I0
sg20
I106
sg21
I0
sg22
I0
sg23
I51
sg24
I0
sbssg25
S'$M\xe5jQ\xce\xf5\xf2\xcb\xc6\n\x8f\x8c\xea\x9b\x95'
p458
ssS'_home_virtubuntu__local_lib_python2_7_site-packages_pyqtgraph_graphicsItems_HistogramLUTItem'
p459
(dp460
g6
(dp461
g8
S'_home_virtubuntu__local_lib_python2_7_site-packages_pyqtgraph_graphicsItems_HistogramLUTItem.html'
p462
sg10
S'/home/virtubuntu/.local/lib/python2.7/site-packages/pyqtgraph/graphicsItems/HistogramLUTItem'
p463
sg12
g13
(g14
g15
NtRp464
(dp465
g18
I1
sg19
I0
sg20
I124
sg21
I0
sg22
I0
sg23
I92
sg24
I0
sbssg25
S'\xc35\x10b\xa6\xd4G\x93\xbe\x0eC\nH\x17p\x98'
p466
ssS'_home_virtubuntu_catkin_ws_devel_lib_python2_7_dist-packages_arni_core___init__'
p467
(dp468
g6
(dp469
g8
S'_home_virtubuntu_catkin_ws_devel_lib_python2_7_dist-packages_arni_core___init__.html'
p470
sg10
S'/home/virtubuntu/catkin_ws/devel/lib/python2.7/dist-packages/arni_core/__init__'
p471
sg12
g13
(g14
g15
NtRp472
(dp473
g18
I1
sg19
I0
sg20
I28
sg21
I0
sg22
I0
sg23
I1
sg24
I0
sbssg25
S'\x98\x19\x80\xd1I\xd2\xc0\x02d\r\xd3\xb3!x\xfek'
p474
ssS'_home_virtubuntu__local_lib_python2_7_site-packages_pyqtgraph_numpy_fix'
p475
(dp476
g6
(dp477
g8
S'_home_virtubuntu__local_lib_python2_7_site-packages_pyqtgraph_numpy_fix.html'
p478
sg10
S'/home/virtubuntu/.local/lib/python2.7/site-packages/pyqtgraph/numpy_fix'
p479
sg12
g13
(g14
g15
NtRp480
(dp481
g18
I1
sg19
I0
sg20
I15
sg21
I0
sg22
I0
sg23
I5
sg24
I0
sbssg25
S'l[\xaf\r\xad\xc0z\x8f\xb4\xb5\x9d\n\xf0\xca\x05P'
p482
ssS'_opt_ros_indigo_lib_python2_7_dist-packages_rospy_impl_validators'
p483
(dp484
g6
(dp485
g8
S'_opt_ros_indigo_lib_python2_7_dist-packages_rospy_impl_validators.html'
p486
sg10
S'/opt/ros/indigo/lib/python2.7/dist-packages/rospy/impl/validators'
p487
sg12
g13
(g14
g15
NtRp488
(dp489
g18
I1
sg19
I0
sg20
I12
sg21
I0
sg22
I0
sg23
I3
sg24
I0
sbssg25
S'h\xb5\x04\xa3Z\x9eN+\x9b1p\xa9\xf3\x9d\x90\xee'
p490
ssS'_home_virtubuntu__local_lib_python2_7_site-packages_pyqtgraph_widgets_ValueLabel'
p491
(dp492
g6
(dp493
g8
S'_home_virtubuntu__local_lib_python2_7_site-packages_pyqtgraph_widgets_ValueLabel.html'
p494
sg10
S'/home/virtubuntu/.local/lib/python2.7/site-packages/pyqtgraph/widgets/ValueLabel'
p495
sg12
g13
(g14
g15
NtRp496
(dp497
g18
I1
sg19
I0
sg20
I40
sg21
I0
sg22
I0
sg23
I27
sg24
I0
sbssg25
S'\x1fA\xdf8\xbe\xaa.\xe7\xde\xf6\x9c\x85w.)\x0c'
p498
ssS'_opt_ros_indigo_lib_python2_7_dist-packages_std_msgs_msg__Int16MultiArray'
p499
(dp500
g6
(dp501
g8
S'_opt_ros_indigo_lib_python2_7_dist-packages_std_msgs_msg__Int16MultiArray.html'
p502
sg10
S'/opt/ros/indigo/lib/python2.7/dist-packages/std_msgs/msg/_Int16MultiArray'
p503
sg12
g13
(g14
g15
NtRp504
(dp505
g18
I1
sg19
I0
sg20
I143
sg21
I0
sg22
I0
sg23
I123
sg24
I0
sbssg25
S'_L\xc3\x9a*)\x86\x9f\xeaf!\xd6v\xdb\xceh'
p506
ssS'_home_virtubuntu__local_lib_python2_7_site-packages_pyqtgraph_graphicsItems_GridItem'
p507
(dp508
g6
(dp509
g8
S'_home_virtubuntu__local_lib_python2_7_site-packages_pyqtgraph_graphicsItems_GridItem.html'
p510
sg10
S'/home/virtubuntu/.local/lib/python2.7/site-packages/pyqtgraph/graphicsItems/GridItem'
p511
sg12
g13
(g14
g15
NtRp512
(dp513
g18
I1
sg19
I0
sg20
I76
sg21
I0
sg22
I0
sg23
I65
sg24
I0
sbssg25
S'\xbcD\xeb\xb3\xc3\x0fh\xd2w\x152Y\xe5}\x9c\xe6'
p514
ssS'_opt_ros_indigo_lib_python2_7_dist-packages_std_msgs_msg___init__'
p515
(dp516
g6
(dp517
g8
S'_opt_ros_indigo_lib_python2_7_dist-packages_std_msgs_msg___init__.html'
p518
sg10
S'/opt/ros/indigo/lib/python2.7/dist-packages/std_msgs/msg/__init__'
p519
sg12
g13
(g14
g15
NtRp520
(dp521
g18
I1
sg19
I0
sg20
I32
sg21
I0
sg22
I0
sg23
I0
sg24
I0
sbssg25
S'D\x93\xa0z5+\x82\x95y\tp\xb4\xfc\x03\x1a\xae'
p522
ssS'_usr_local_lib_python2_7_dist-packages_numpy_distutils_compat'
p523
(dp524
g6
(dp525
g8
S'_usr_local_lib_python2_7_dist-packages_numpy_distutils_compat.html'
p526
sg10
S'/usr/local/lib/python2.7/dist-packages/numpy/distutils/compat'
p527
sg12
g13
(g14
g15
NtRp528
(dp529
g18
I1
sg19
I0
sg20
I4
sg21
I0
sg22
I0
sg23
I1
sg24
I0
sbssg25
S'\x15<\xd1!\xcc\x8d\x17\xb6\xc5\x83\xaf\xc6\xead\x14\x85'
p530
ssS'_opt_ros_indigo_lib_python2_7_dist-packages_std_msgs_msg__UInt64MultiArray'
p531
(dp532
g6
(dp533
g8
S'_opt_ros_indigo_lib_python2_7_dist-packages_std_msgs_msg__UInt64MultiArray.html'
p534
sg10
S'/opt/ros/indigo/lib/python2.7/dist-packages/std_msgs/msg/_UInt64MultiArray'
p535
sg12
g13
(g14
g15
NtRp536
(dp537
g18
I1
sg19
I0
sg20
I143
sg21
I0
sg22
I0
sg23
I123
sg24
I0
sbssg25
S'\x9e\xf0\xb7\x89{7\x9c8\xe0#\xa1A\xbe\xe4\x00g'
p538
ssS'_home_virtubuntu__local_lib_python2_7_site-packages_pyqtgraph_graphicsItems_GraphItem'
p539
(dp540
g6
(dp541
g8
S'_home_virtubuntu__local_lib_python2_7_site-packages_pyqtgraph_graphicsItems_GraphItem.html'
p542
sg10
S'/home/virtubuntu/.local/lib/python2.7/site-packages/pyqtgraph/graphicsItems/GraphItem'
p543
sg12
g13
(g14
g15
NtRp544
(dp545
g18
I1
sg19
I0
sg20
I71
sg21
I0
sg22
I0
sg23
I56
sg24
I0
sbssg25
S'\xd4DH\xc3\x8a\x16ur1\xfaS\xcf\xb27\x14\xfd'
p546
ssS'_opt_ros_indigo_lib_python2_7_dist-packages_qt_gui_plugin_manager'
p547
(dp548
g6
(dp549
g8
S'_opt_ros_indigo_lib_python2_7_dist-packages_qt_gui_plugin_manager.html'
p550
sg10
S'/opt/ros/indigo/lib/python2.7/dist-packages/qt_gui/plugin_manager'
p551
sg12
g13
(g14
g15
NtRp552
(dp553
g18
I1
sg19
I0
sg20
I369
sg21
I0
sg22
I0
sg23
I103
sg24
I0
sbssg25
S'k\xf1I\xf9\x85\xcd\x1b\x00\x80\x18U1(\x99?j'
p554
ssS'_opt_ros_indigo_lib_python2_7_dist-packages_rqt_gui_rospkg_plugin_provider'
p555
(dp556
g6
(dp557
g8
S'_opt_ros_indigo_lib_python2_7_dist-packages_rqt_gui_rospkg_plugin_provider.html'
p558
sg10
S'/opt/ros/indigo/lib/python2.7/dist-packages/rqt_gui/rospkg_plugin_provider'
p559
sg12
g13
(g14
g15
NtRp560
(dp561
g18
I1
sg19
I0
sg20
I69
sg21
I0
sg22
I0
sg23
I44
sg24
I0
sbssg25
S"Q\xf0m\xa5.ic:\xd6l'\xef3\xb3\xf1\x91"
p562
ssS'_opt_ros_indigo_lib_python2_7_dist-packages_qt_gui_menu_manager'
p563
(dp564
g6
(dp565
g8
S'_opt_ros_indigo_lib_python2_7_dist-packages_qt_gui_menu_manager.html'
p566
sg10
S'/opt/ros/indigo/lib/python2.7/dist-packages/qt_gui/menu_manager'
p567
sg12
g13
(g14
g15
NtRp568
(dp569
g18
I1
sg19
I0
sg20
I90
sg21
I0
sg22
I0
sg23
I10
sg24
I0
sbssg25
S'D\x0fVY\xfa>\xe6\xea\xd5\xf6\xb415\xcbf\x91'
p570
ssS'_opt_ros_indigo_lib_python2_7_dist-packages_qt_gui_cpp___init__'
p571
(dp572
g6
(dp573
g8
S'_opt_ros_indigo_lib_python2_7_dist-packages_qt_gui_cpp___init__.html'
p574
sg10
S'/opt/ros/indigo/lib/python2.7/dist-packages/qt_gui_cpp/__init__'
p575
sg12
g13
(g14
g15
NtRp576
(dp577
g18
I1
sg19
I0
sg20
I0
sg21
I0
sg22
I0
sg23
I0
sg24
I0
sbssg25
S'\xca\xf5\x9f\x7f\x88\xdfa\x831|T\x1d\xbc}\xa5v'
p578
ssS'_opt_ros_indigo_lib_python2_7_dist-packages_qt_gui_perspective_manager_dbus_interface'
p579
(dp580
g6
(dp581
g8
S'_opt_ros_indigo_lib_python2_7_dist-packages_qt_gui_perspective_manager_dbus_interface.html'
p582
sg10
S'/opt/ros/indigo/lib/python2.7/dist-packages/qt_gui/perspective_manager_dbus_interface'
p583
sg12
g13
(g14
g15
NtRp584
(dp585
g18
I1
sg19
I0
sg20
I11
sg21
I0
sg22
I0
sg23
I2
sg24
I0
sbssg25
S'T\x1b\xb94{\x9c\x9f\xab\xd7\xb3B\xa6\x08$\xf0\x88'
p586
ssS'_opt_ros_indigo_lib_python2_7_dist-packages_qt_gui_dock_widget_title_bar'
p587
(dp588
g6
(dp589
g8
S'_opt_ros_indigo_lib_python2_7_dist-packages_qt_gui_dock_widget_title_bar.html'
p590
sg10
S'/opt/ros/indigo/lib/python2.7/dist-packages/qt_gui/dock_widget_title_bar'
p591
sg12
g13
(g14
g15
NtRp592
(dp593
g18
I1
sg19
I0
sg20
I121
sg21
I0
sg22
I0
sg23
I30
sg24
I0
sbssg25
S'\xf3\xff\xbb@\x90\xa9?[\x98R\x97\x0f\x8eSD\xdb'
p594
ssS'_usr_local_lib_python2_7_dist-packages_numpy_oldnumeric_ufuncs'
p595
(dp596
g6
(dp597
g8
S'_usr_local_lib_python2_7_dist-packages_numpy_oldnumeric_ufuncs.html'
p598
sg10
S'/usr/local/lib/python2.7/dist-packages/numpy/oldnumeric/ufuncs'
p599
sg12
g13
(g14
g15
NtRp600
(dp601
g18
I1
sg19
I0
sg20
I3
sg21
I0
sg22
I0
sg23
I0
sg24
I0
sbssg25
S'\xcc\xea<3\x1f\x8e\x19L\xc2\x0b\xe9\x82\x83\xc2Cw'
p602
ssS'_usr_local_lib_python2_7_dist-packages_numpy_core_records'
p603
(dp604
g6
(dp605
g8
S'_usr_local_lib_python2_7_dist-packages_numpy_core_records.html'
p606
sg10
S'/usr/local/lib/python2.7/dist-packages/numpy/core/records'
p607
sg12
g13
(g14
g15
NtRp608
(dp609
g18
I1
sg19
I0
sg20
I356
sg21
I0
sg22
I0
sg23
I318
sg24
I0
sbssg25
S'\xf9\n\xffj\x82\xc1\xe4Y\xfe\xf7\x05%5C\x10Y'
p610
ssS'_usr_local_lib_python2_7_dist-packages_numpy_core_arrayprint'
p611
(dp612
g6
(dp613
g8
S'_usr_local_lib_python2_7_dist-packages_numpy_core_arrayprint.html'
p614
sg10
S'/usr/local/lib/python2.7/dist-packages/numpy/core/arrayprint'
p615
sg12
g13
(g14
g15
NtRp616
(dp617
g18
I1
sg19
I0
sg20
I354
sg21
I0
sg22
I0
sg23
I300
sg24
I0
sbssg25
S'\xc3:\xb9\xd2\xcb\x81\xde\xc6\xaf\xe1\xdb\xeb\x90\x8e\xda\xd5'
p618
ssS'_opt_ros_indigo_lib_python2_7_dist-packages_qt_gui___init__'
p619
(dp620
g6
(dp621
g8
S'_opt_ros_indigo_lib_python2_7_dist-packages_qt_gui___init__.html'
p622
sg10
S'/opt/ros/indigo/lib/python2.7/dist-packages/qt_gui/__init__'
p623
sg12
g13
(g14
g15
NtRp624
(dp625
g18
I1
sg19
I0
sg20
I0
sg21
I0
sg22
I0
sg23
I0
sg24
I0
sbssg25
S'\xca\xf5\x9f\x7f\x88\xdfa\x831|T\x1d\xbc}\xa5v'
p626
ssS'_opt_ros_indigo_lib_python2_7_dist-packages_roslib_stacks'
p627
(dp628
g6
(dp629
g8
S'_opt_ros_indigo_lib_python2_7_dist-packages_roslib_stacks.html'
p630
sg10
S'/opt/ros/indigo/lib/python2.7/dist-packages/roslib/stacks'
p631
sg12
g13
(g14
g15
NtRp632
(dp633
g18
I1
sg19
I0
sg20
I96
sg21
I0
sg22
I0
sg23
I72
sg24
I0
sbssg25
S'\x8b\x88\xc2\xf8\x03\xd3\xbf\xd5R.}W\xff&&\xd0'
p634
ssS'_home_virtubuntu__local_lib_python2_7_site-packages_pyqtgraph_widgets_SpinBox'
p635
(dp636
g6
(dp637
g8
S'_home_virtubuntu__local_lib_python2_7_site-packages_pyqtgraph_widgets_SpinBox.html'
p638
sg10
S'/home/virtubuntu/.local/lib/python2.7/site-packages/pyqtgraph/widgets/SpinBox'
p639
sg12
g13
(g14
g15
NtRp640
(dp641
g18
I1
sg19
I0
sg20
I232
sg21
I0
sg22
I0
sg23
I194
sg24
I0
sbssg25
S')(\xfcN\x9f=`}\xb09p\xa3z7\xbfB'
p642
ssS'_home_virtubuntu__local_lib_python2_7_site-packages_pyqtgraph_functions'
p643
(dp644
g6
(dp645
g8
S'_home_virtubuntu__local_lib_python2_7_site-packages_pyqtgraph_functions.html'
p646
sg10
S'/home/virtubuntu/.local/lib/python2.7/site-packages/pyqtgraph/functions'
p647
sg12
g13
(g14
g15
NtRp648
(dp649
g18
I1
sg19
I0
sg20
I758
sg21
I0
sg22
I0
sg23
I589
sg24
I0
sbssg25
S'jR,m\xd3\x04\x83\x19\xd1\xfbP\xa7\xb2RQ\xd1'
p650
ssS'_home_virtubuntu__local_lib_python2_7_site-packages_pyqtgraph_graphicsItems_TextItem'
p651
(dp652
g6
(dp653
g8
S'_home_virtubuntu__local_lib_python2_7_site-packages_pyqtgraph_graphicsItems_TextItem.html'
p654
sg10
S'/home/virtubuntu/.local/lib/python2.7/site-packages/pyqtgraph/graphicsItems/TextItem'
p655
sg12
g13
(g14
g15
NtRp656
(dp657
g18
I1
sg19
I0
sg20
I62
sg21
I0
sg22
I0
sg23
I46
sg24
I0
sbssg25
S'\x15\xf0\xd1J\x16\xbb\xf5S\x94sJ\xf0\xa9\x02O\x19'
p658
ssS'_opt_ros_indigo_lib_python2_7_dist-packages_qt_gui_dock_widget'
p659
(dp660
g6
(dp661
g8
S'_opt_ros_indigo_lib_python2_7_dist-packages_qt_gui_dock_widget.html'
p662
sg10
S'/opt/ros/indigo/lib/python2.7/dist-packages/qt_gui/dock_widget'
p663
sg12
g13
(g14
g15
NtRp664
(dp665
g18
I1
sg19
I0
sg20
I147
sg21
I0
sg22
I0
sg23
I95
sg24
I0
sbssg25
S"PKq-{\x8a\xf97>\xf96\xadk3\n'"
p666
ssS'_usr_local_lib_python2_7_dist-packages_numpy_core___init__'
p667
(dp668
g6
(dp669
g8
S'_usr_local_lib_python2_7_dist-packages_numpy_core___init__.html'
p670
sg10
S'/usr/local/lib/python2.7/dist-packages/numpy/core/__init__'
p671
sg12
g13
(g14
g15
NtRp672
(dp673
g18
I1
sg19
I0
sg20
I56
sg21
I0
sg22
I0
sg23
I6
sg24
I0
sbssg25
S'\xae\xb8\xb1\x8f\xe1Q\x0e\x1f)H\xbf\xedn\r\x8b='
p674
ssS'_opt_ros_indigo_lib_python2_7_dist-packages_rospy_impl_tcpros'
p675
(dp676
g6
(dp677
g8
S'_opt_ros_indigo_lib_python2_7_dist-packages_rospy_impl_tcpros.html'
p678
sg10
S'/opt/ros/indigo/lib/python2.7/dist-packages/rospy/impl/tcpros'
p679
sg12
g13
(g14
g15
NtRp680
(dp681
g18
I1
sg19
I0
sg20
I11
sg21
I0
sg22
I0
sg23
I0
sg24
I0
sbssg25
S',\xe1\x12%`Y\xe5\xf8c\xa9\x181\xc0+\xbb\x81'
p682
ssS'_opt_ros_indigo_lib_rqt_gui_rqt_gui'
p683
(dp684
g6
(dp685
g8
S'_opt_ros_indigo_lib_rqt_gui_rqt_gui.html'
p686
sg10
S'/opt/ros/indigo/lib/rqt_gui/rqt_gui'
p687
sg12
g13
(g14
g15
NtRp688
(dp689
g18
I1
sg19
I0
sg20
I9
sg21
I0
sg22
I0
sg23
I0
sg24
I0
sbssg25
S"'\xd3\xf0I\xa9\xce^SG\x90\xd1\xba'x\xce\xa8"
p690
ssS'_home_virtubuntu__local_lib_python2_7_site-packages_pyqtgraph_widgets_LayoutWidget'
p691
(dp692
g6
(dp693
g8
S'_home_virtubuntu__local_lib_python2_7_site-packages_pyqtgraph_widgets_LayoutWidget.html'
p694
sg10
S'/home/virtubuntu/.local/lib/python2.7/site-packages/pyqtgraph/widgets/LayoutWidget'
p695
sg12
g13
(g14
g15
NtRp696
(dp697
g18
I1
sg19
I0
sg20
I42
sg21
I0
sg22
I0
sg23
I31
sg24
I0
sbssg25
S'h^^\x18~\x05\xf2\x05\x1f@\x823\xd6t\xcc)'
p698
ssS'_opt_ros_indigo_lib_python2_7_dist-packages_rospy_impl_tcpros_base'
p699
(dp700
g6
(dp701
g8
S'_opt_ros_indigo_lib_python2_7_dist-packages_rospy_impl_tcpros_base.html'
p702
sg10
S'/opt/ros/indigo/lib/python2.7/dist-packages/rospy/impl/tcpros_base'
p703
sg12
g13
(g14
g15
NtRp704
(dp705
g18
I1
sg19
I0
sg20
I402
sg21
I0
sg22
I0
sg23
I107
sg24
I0
sbssg25
S'%p^7\x86\xdbt\xf5\xeev\xb79.\x96\xd9A'
p706
ssS'_home_virtubuntu__local_lib_python2_7_site-packages_pyqtgraph_metaarray___init__'
p707
(dp708
g6
(dp709
g8
S'_home_virtubuntu__local_lib_python2_7_site-packages_pyqtgraph_metaarray___init__.html'
p710
sg10
S'/home/virtubuntu/.local/lib/python2.7/site-packages/pyqtgraph/metaarray/__init__'
p711
sg12
g13
(g14
g15
NtRp712
(dp713
g18
I1
sg19
I0
sg20
I1
sg21
I0
sg22
I0
sg23
I0
sg24
I0
sbssg25
S'\x9eoB\xe9"\xd7{\xb5\xc8j\xed\xdeVeE\xb1'
p714
ssS'_home_virtubuntu__local_lib_python2_7_site-packages_pyqtgraph_WidgetGroup'
p715
(dp716
g6
(dp717
g8
S'_home_virtubuntu__local_lib_python2_7_site-packages_pyqtgraph_WidgetGroup.html'
p718
sg10
S'/home/virtubuntu/.local/lib/python2.7/site-packages/pyqtgraph/WidgetGroup'
p719
sg12
g13
(g14
g15
NtRp720
(dp721
g18
I1
sg19
I0
sg20
I151
sg21
I0
sg22
I0
sg23
I64
sg24
I0
sbssg25
S'\x16\x03:\x89\xb7=/&\x8b-$I-B4}'
p722
ssS'_home_virtubuntu_catkin_ws_src_arni_arni_gui_src_arni_gui_model_logger'
p723
(dp724
g6
(dp725
g8
S'_home_virtubuntu_catkin_ws_src_arni_arni_gui_src_arni_gui_model_logger.html'
p726
sg10
S'/home/virtubuntu/catkin_ws/src/arni/arni_gui/src/arni_gui/model_logger'
p727
sg12
g13
(g14
g15
NtRp728
(dp729
g18
I1
sg19
I0
sg20
I15
sg21
I0
sg22
I0
sg23
I0
sg24
I0
sbssg25
S'\xe3k\xb2_hr\xbe\xab\xb3\xe8\x91j\x98\xaf\xc7\x13'
p730
ssS'_usr_local_lib_python2_7_dist-packages_numpy_distutils_command_install'
p731
(dp732
g6
(dp733
g8
S'_usr_local_lib_python2_7_dist-packages_numpy_distutils_command_install.html'
p734
sg10
S'/usr/local/lib/python2.7/dist-packages/numpy/distutils/command/install'
p735
sg12
g13
(g14
g15
NtRp736
(dp737
g18
I1
sg19
I0
sg20
I41
sg21
I0
sg22
I0
sg23
I29
sg24
I0
sbssg25
S'<[\xf8\x8e\\No5j\xcb\x90\xdav@\xbc\xa7'
p738
ssS'_opt_ros_indigo_lib_python2_7_dist-packages_roslib_message'
p739
(dp740
g6
(dp741
g8
S'_opt_ros_indigo_lib_python2_7_dist-packages_roslib_message.html'
p742
sg10
S'/opt/ros/indigo/lib/python2.7/dist-packages/roslib/message'
p743
sg12
g13
(g14
g15
NtRp744
(dp745
g18
I1
sg19
I0
sg20
I55
sg21
I0
sg22
I0
sg23
I33
sg24
I0
sbssg25
S'7\x1b\xecy%[\xe6\x88\xc1;\xd9\xb6?\xdb\x9f\xd4'
p746
ssS'_opt_ros_indigo_lib_python2_7_dist-packages_qt_gui_minimized_dock_widgets_toolbar'
p747
(dp748
g6
(dp749
g8
S'_opt_ros_indigo_lib_python2_7_dist-packages_qt_gui_minimized_dock_widgets_toolbar.html'
p750
sg10
S'/opt/ros/indigo/lib/python2.7/dist-packages/qt_gui/minimized_dock_widgets_toolbar'
p751
sg12
g13
(g14
g15
NtRp752
(dp753
g18
I1
sg19
I0
sg20
I45
sg21
I0
sg22
I0
sg23
I8
sg24
I0
sbssg25
S'\x1a\xf5\xdc\x9b\x8d@\xf4\xdc\xdc\xa8\xad\x16\xf8)\x8aU'
p754
ssS'_opt_ros_indigo_lib_python2_7_dist-packages_roscpp___init__'
p755
(dp756
g6
(dp757
g8
S'_opt_ros_indigo_lib_python2_7_dist-packages_roscpp___init__.html'
p758
sg10
S'/opt/ros/indigo/lib/python2.7/dist-packages/roscpp/__init__'
p759
sg12
g13
(g14
g15
NtRp760
(dp761
g18
I1
sg19
I0
sg20
I0
sg21
I0
sg22
I0
sg23
I0
sg24
I0
sbssg25
S'\xca\xf5\x9f\x7f\x88\xdfa\x831|T\x1d\xbc}\xa5v'
p762
ssS'_home_virtubuntu__local_lib_python2_7_site-packages_pyqtgraph_graphicsItems_GradientEditorItem'
p763
(dp764
g6
(dp765
g8
S'_home_virtubuntu__local_lib_python2_7_site-packages_pyqtgraph_graphicsItems_GradientEditorItem.html'
p766
sg10
S'/home/virtubuntu/.local/lib/python2.7/site-packages/pyqtgraph/graphicsItems/GradientEditorItem'
p767
sg12
g13
(g14
g15
NtRp768
(dp769
g18
I1
sg19
I0
sg20
I451
sg21
I0
sg22
I0
sg23
I379
sg24
I0
sbssg25
S'9wM\xebb5\xabD\xa6\x9c\x17"t\x95vQ'
p770
ssS'_opt_ros_indigo_lib_python2_7_dist-packages_qt_gui_settings_proxy'
p771
(dp772
g6
(dp773
g8
S'_opt_ros_indigo_lib_python2_7_dist-packages_qt_gui_settings_proxy.html'
p774
sg10
S'/opt/ros/indigo/lib/python2.7/dist-packages/qt_gui/settings_proxy'
p775
sg12
g13
(g14
g15
NtRp776
(dp777
g18
I1
sg19
I0
sg20
I47
sg21
I0
sg22
I0
sg23
I9
sg24
I0
sbssg25
S'\xe7G\x9e\xd1\xe9@ug\x1f\x99\xa3p\x9c\xe7c='
p778
ssS'_home_virtubuntu__local_lib_python2_7_site-packages_pyqtgraph_SRTTransform3D'
p779
(dp780
g6
(dp781
g8
S'_home_virtubuntu__local_lib_python2_7_site-packages_pyqtgraph_SRTTransform3D.html'
p782
sg10
S'/home/virtubuntu/.local/lib/python2.7/site-packages/pyqtgraph/SRTTransform3D'
p783
sg12
g13
(g14
g15
NtRp784
(dp785
g18
I1
sg19
I0
sg20
I197
sg21
I0
sg22
I0
sg23
I171
sg24
I0
sbssg25
S'\xf9\xf5p\xa2e~\x14rE\x86\tCH\xaf>\x13'
p786
ssS'_home_virtubuntu__local_lib_python2_7_site-packages_pyqtgraph_graphicsItems_IsocurveItem'
p787
(dp788
g6
(dp789
g8
S'_home_virtubuntu__local_lib_python2_7_site-packages_pyqtgraph_graphicsItems_IsocurveItem.html'
p790
sg10
S'/home/virtubuntu/.local/lib/python2.7/site-packages/pyqtgraph/graphicsItems/IsocurveItem'
p791
sg12
g13
(g14
g15
NtRp792
(dp793
g18
I1
sg19
I0
sg20
I54
sg21
I0
sg22
I0
sg23
I41
sg24
I0
sbssg25
S'`\xeb\x8b\xbb4\x97\xa9\xa0\x19\x94(\x94^\xc6\xab\xb3'
p794
ssS'_home_virtubuntu_catkin_ws_src_arni_arni_core_src_arni_core_host_lookup'
p795
(dp796
g6
(dp797
g8
S'_home_virtubuntu_catkin_ws_src_arni_arni_core_src_arni_core_host_lookup.html'
p798
sg10
S'/home/virtubuntu/catkin_ws/src/arni/arni_core/src/arni_core/host_lookup'
p799
sg12
g13
(g14
g15
NtRp800
(dp801
g18
I1
sg19
I0
sg20
I39
sg21
I0
sg22
I0
sg23
I17
sg24
I0
sbssg25
S"]\x08'\xda\xc2\x02S\x96\x18\x92~\x8eh,\xe9*"
p802
ssS'_home_virtubuntu__local_lib_python2_7_site-packages_pyqtgraph_graphicsItems_ViewBox___init__'
p803
(dp804
g6
(dp805
g8
S'_home_virtubuntu__local_lib_python2_7_site-packages_pyqtgraph_graphicsItems_ViewBox___init__.html'
p806
sg10
S'/home/virtubuntu/.local/lib/python2.7/site-packages/pyqtgraph/graphicsItems/ViewBox/__init__'
p807
sg12
g13
(g14
g15
NtRp808
(dp809
g18
I1
sg19
I0
sg20
I1
sg21
I0
sg22
I0
sg23
I0
sg24
I0
sbssg25
S'\xdc\xce\x83\xb4\xdc\xe9"\x8d1f_\xfd\x86(l\x11'
p810
ssS'_usr_local_lib_python2_7_dist-packages_numpy_compat___init__'
p811
(dp812
g6
(dp813
g8
S'_usr_local_lib_python2_7_dist-packages_numpy_compat___init__.html'
p814
sg10
S'/usr/local/lib/python2.7/dist-packages/numpy/compat/__init__'
p815
sg12
g13
(g14
g15
NtRp816
(dp817
g18
I1
sg19
I0
sg20
I8
sg21
I0
sg22
I0
sg23
I0
sg24
I0
sbssg25
S'\x15\x0e\xb5\x81\r\xba,\xe3\xc7\x05Pc\xc1\x0eQ\x0c'
p818
ssS'_opt_ros_indigo_lib_python2_7_dist-packages_std_msgs_msg__Bool'
p819
(dp820
g6
(dp821
g8
S'_opt_ros_indigo_lib_python2_7_dist-packages_std_msgs_msg__Bool.html'
p822
sg10
S'/opt/ros/indigo/lib/python2.7/dist-packages/std_msgs/msg/_Bool'
p823
sg12
g13
(g14
g15
NtRp824
(dp825
g18
I1
sg19
I0
sg20
I51
sg21
I0
sg22
I0
sg23
I32
sg24
I0
sbssg25
S']\x97dqAl\x04|P\xd3\x9bv\xcd@\xcc\xa3'
p826
ssS'_home_virtubuntu__local_lib_python2_7_site-packages_pyqtgraph_graphicsItems_UIGraphicsItem'
p827
(dp828
g6
(dp829
g8
S'_home_virtubuntu__local_lib_python2_7_site-packages_pyqtgraph_graphicsItems_UIGraphicsItem.html'
p830
sg10
S'/home/virtubuntu/.local/lib/python2.7/site-packages/pyqtgraph/graphicsItems/UIGraphicsItem'
p831
sg12
g13
(g14
g15
NtRp832
(dp833
g18
I1
sg19
I0
sg20
I49
sg21
I0
sg22
I0
sg23
I33
sg24
I0
sbssg25
S'Y\x057v\xd8\xe6\x01\xd2\xb1\xe9\x93\x81\x98\xa8\x9f\xa8'
p834
ssS'_usr_local_lib_python2_7_dist-packages_numpy_lib_financial'
p835
(dp836
g6
(dp837
g8
S'_usr_local_lib_python2_7_dist-packages_numpy_lib_financial.html'
p838
sg10
S'/usr/local/lib/python2.7/dist-packages/numpy/lib/financial'
p839
sg12
g13
(g14
g15
NtRp840
(dp841
g18
I1
sg19
I0
sg20
I112
sg21
I0
sg22
I0
sg23
I94
sg24
I0
sbssg25
S'\xd4a\x9d\xf73;q\r\xa0o{`\xe9F\xe4\x80'
p842
ssS'_opt_ros_indigo_lib_python2_7_dist-packages_rospy_timer'
p843
(dp844
g6
(dp845
g8
S'_opt_ros_indigo_lib_python2_7_dist-packages_rospy_timer.html'
p846
sg10
S'/opt/ros/indigo/lib/python2.7/dist-packages/rospy/timer'
p847
sg12
g13
(g14
g15
NtRp848
(dp849
g18
I1
sg19
I0
sg20
I76
sg21
I0
sg22
I0
sg23
I23
sg24
I0
sbssg25
S'C)\xa0\xa27T\xbd\xb8\xe57\xee%p\xbav\xe1'
p850
ssS'_usr_local_lib_python2_7_dist-packages_numpy_testing_utils'
p851
(dp852
g6
(dp853
g8
S'_usr_local_lib_python2_7_dist-packages_numpy_testing_utils.html'
p854
sg10
S'/usr/local/lib/python2.7/dist-packages/numpy/testing/utils'
p855
sg12
g13
(g14
g15
NtRp856
(dp857
g18
I1
sg19
I0
sg20
I562
sg21
I0
sg22
I0
sg23
I506
sg24
I0
sbssg25
S'g\xcd\x9b(\xf6@C"\xe0\x8a\xbe5j(~E'
p858
ssS'_opt_ros_indigo_lib_python2_7_dist-packages_rospy_impl_masterslave'
p859
(dp860
g6
(dp861
g8
S'_opt_ros_indigo_lib_python2_7_dist-packages_rospy_impl_masterslave.html'
p862
sg10
S'/opt/ros/indigo/lib/python2.7/dist-packages/rospy/impl/masterslave'
p863
sg12
g13
(g14
g15
NtRp864
(dp865
g18
I1
sg19
I0
sg20
I211
sg21
I0
sg22
I0
sg23
I75
sg24
I0
sbssg25
S'\x92-\x8f\xdd\xe9\xa2\xc1\x81\x04\xc8\x97\xe3:\xae\x86\x9f'
p866
ssS'_opt_ros_indigo_lib_python2_7_dist-packages_rospy_msg'
p867
(dp868
g6
(dp869
g8
S'_opt_ros_indigo_lib_python2_7_dist-packages_rospy_msg.html'
p870
sg10
S'/opt/ros/indigo/lib/python2.7/dist-packages/rospy/msg'
p871
sg12
g13
(g14
g15
NtRp872
(dp873
g18
I1
sg19
I0
sg20
I97
sg21
I0
sg22
I0
sg23
I28
sg24
I0
sbssg25
S'\xbaO\xb5\x90\x1a\x92st#(\xc9b\xaf)\xc5\xdf'
p874
ssS'_home_virtubuntu__local_lib_python2_7_site-packages_pyqtgraph_graphicsItems_PlotItem___init__'
p875
(dp876
g6
(dp877
g8
S'_home_virtubuntu__local_lib_python2_7_site-packages_pyqtgraph_graphicsItems_PlotItem___init__.html'
p878
sg10
S'/home/virtubuntu/.local/lib/python2.7/site-packages/pyqtgraph/graphicsItems/PlotItem/__init__'
p879
sg12
g13
(g14
g15
NtRp880
(dp881
g18
I1
sg19
I0
sg20
I1
sg21
I0
sg22
I0
sg23
I0
sg24
I0
sbssg25
S'!\x1b\x1aI7\x0e\xc0%\xa4\xd1\xfdP\x96\x8b\x9cV'
p882
ssS'_home_virtubuntu__local_lib_python2_7_site-packages_pyqtgraph_graphicsItems_VTickGroup'
p883
(dp884
g6
(dp885
g8
S'_home_virtubuntu__local_lib_python2_7_site-packages_pyqtgraph_graphicsItems_VTickGroup.html'
p886
sg10
S'/home/virtubuntu/.local/lib/python2.7/site-packages/pyqtgraph/graphicsItems/VTickGroup'
p887
sg12
g13
(g14
g15
NtRp888
(dp889
g18
I1
sg19
I0
sg20
I61
sg21
I0
sg22
I0
sg23
I45
sg24
I0
sbssg25
S'\n\xd1CT\xb1\x8eaq\x08\xca\x04\xb6\x0e\xe8AY'
p890
ssS'_usr_local_lib_python2_7_dist-packages_numpy_matrixlib_defmatrix'
p891
(dp892
g6
(dp893
g8
S'_usr_local_lib_python2_7_dist-packages_numpy_matrixlib_defmatrix.html'
p894
sg10
S'/usr/local/lib/python2.7/dist-packages/numpy/matrixlib/defmatrix'
p895
sg12
g13
(g14
g15
NtRp896
(dp897
g18
I1
sg19
I0
sg20
I286
sg21
I0
sg22
I0
sg23
I223
sg24
I0
sbssg25
S'I\x01o_,e\\}\xca0\xf0\xd5)\x95\xb0k'
p898
ssS'_home_virtubuntu__local_lib_python2_7_site-packages_pyqtgraph_graphicsItems_LinearRegionItem'
p899
(dp900
g6
(dp901
g8
S'_home_virtubuntu__local_lib_python2_7_site-packages_pyqtgraph_graphicsItems_LinearRegionItem.html'
p902
sg10
S'/home/virtubuntu/.local/lib/python2.7/site-packages/pyqtgraph/graphicsItems/LinearRegionItem'
p903
sg12
g13
(g14
g15
NtRp904
(dp905
g18
I1
sg19
I0
sg20
I123
sg21
I0
sg22
I0
sg23
I97
sg24
I0
sbssg25
S'j4DD\xa0}@1@F\xf7\x08\x06\xf2\xda\xb5'
p906
ssS'_home_virtubuntu__local_lib_python2_7_site-packages_pyqtgraph_widgets_PlotWidget'
p907
(dp908
g6
(dp909
g8
S'_home_virtubuntu__local_lib_python2_7_site-packages_pyqtgraph_widgets_PlotWidget.html'
p910
sg10
S'/home/virtubuntu/.local/lib/python2.7/site-packages/pyqtgraph/widgets/PlotWidget'
p911
sg12
g13
(g14
g15
NtRp912
(dp913
g18
I1
sg19
I0
sg20
I36
sg21
I0
sg22
I0
sg23
I22
sg24
I0
sbssg25
S'8x\x95\xc3\xb4\xa2\x7f\xb2@E\xce_Kh?\xd6'
p914
ssS'_home_virtubuntu__local_lib_python2_7_site-packages_pyqtgraph_widgets_ScatterPlotWidget'
p915
(dp916
g6
(dp917
g8
S'_home_virtubuntu__local_lib_python2_7_site-packages_pyqtgraph_widgets_ScatterPlotWidget.html'
p918
sg10
S'/home/virtubuntu/.local/lib/python2.7/site-packages/pyqtgraph/widgets/ScatterPlotWidget'
p919
sg12
g13
(g14
g15
NtRp920
(dp921
g18
I1
sg19
I0
sg20
I136
sg21
I0
sg22
I0
sg23
I118
sg24
I0
sbssg25
S"Z\xa7'\x97[C\xde]f\xd6\x9a'nMM\xb8"
p922
ssS'_home_virtubuntu__local_lib_python2_7_site-packages_pyqtgraph_graphicsItems_GraphicsItem'
p923
(dp924
g6
(dp925
g8
S'_home_virtubuntu__local_lib_python2_7_site-packages_pyqtgraph_graphicsItems_GraphicsItem.html'
p926
sg10
S'/home/virtubuntu/.local/lib/python2.7/site-packages/pyqtgraph/graphicsItems/GraphicsItem'
p927
sg12
g13
(g14
g15
NtRp928
(dp929
g18
I1
sg19
I0
sg20
I302
sg21
I0
sg22
I0
sg23
I129
sg24
I0
sbssg25
S'fRZ\xd3U\x8fr\xce\xed\x89\xc4K\xf1\xf0u('
p930
ssS'_usr_local_lib_python2_7_dist-packages_numpy_core__methods'
p931
(dp932
g6
(dp933
g8
S'_usr_local_lib_python2_7_dist-packages_numpy_core__methods.html'
p934
sg10
S'/usr/local/lib/python2.7/dist-packages/numpy/core/_methods'
p935
sg12
g13
(g14
g15
NtRp936
(dp937
g18
I1
sg19
I0
sg20
I72
sg21
I0
sg22
I0
sg23
I52
sg24
I0
sbssg25
S'\xc3k\xe8\xea\xff\xd4\xb1\xc4\x94\xec\x13\xf4p\xe6\xed\xd3'
p938
ssS'_opt_ros_indigo_lib_python2_7_dist-packages_qt_gui_plugin'
p939
(dp940
g6
(dp941
g8
S'_opt_ros_indigo_lib_python2_7_dist-packages_qt_gui_plugin.html'
p942
sg10
S'/opt/ros/indigo/lib/python2.7/dist-packages/qt_gui/plugin'
p943
sg12
g13
(g14
g15
NtRp944
(dp945
g18
I1
sg19
I0
sg20
I11
sg21
I0
sg22
I0
sg23
I1
sg24
I0
sbssg25
S'G\xf4\xb8\xb1_5\xd09l\xa8K\xbf\xd8?&E'
p946
ssS'_home_virtubuntu_catkin_ws_src_arni_arni_gui_src_arni_gui_buffer_thread'
p947
(dp948
g6
(dp949
g8
S'_home_virtubuntu_catkin_ws_src_arni_arni_gui_src_arni_gui_buffer_thread.html'
p950
sg10
S'/home/virtubuntu/catkin_ws/src/arni/arni_gui/src/arni_gui/buffer_thread'
p951
sg12
g13
(g14
g15
NtRp952
(dp953
g18
I1
sg19
I0
sg20
I60
sg21
I0
sg22
I0
sg23
I4
sg24
I0
sbssg25
S'L\xbd9\xf0bi#h\xb6\xbf\xf6k\xa5\xa4v\xc5'
p954
ssS'_home_virtubuntu_catkin_ws_devel_lib_python2_7_dist-packages_arni_msgs_srv__StatisticHistory'
p955
(dp956
g6
(dp957
g8
S'_home_virtubuntu_catkin_ws_devel_lib_python2_7_dist-packages_arni_msgs_srv__StatisticHistory.html'
p958
sg10
S'/home/virtubuntu/catkin_ws/devel/lib/python2.7/dist-packages/arni_msgs/srv/_StatisticHistory'
p959
sg12
g13
(g14
g15
NtRp960
(dp961
g18
I1
sg19
I0
sg20
I2204
sg21
I0
sg22
I0
sg23
I1681
sg24
I0
sbssg25
S'jA\xbf\x10\xe6\xbfA.w\xb0U\xc3>\\Z\xbf'
p962
ssS'_opt_ros_indigo_lib_python2_7_dist-packages_qt_gui_plugin_handler_container'
p963
(dp964
g6
(dp965
g8
S'_opt_ros_indigo_lib_python2_7_dist-packages_qt_gui_plugin_handler_container.html'
p966
sg10
S'/opt/ros/indigo/lib/python2.7/dist-packages/qt_gui/plugin_handler_container'
p967
sg12
g13
(g14
g15
NtRp968
(dp969
g18
I1
sg19
I0
sg20
I40
sg21
I0
sg22
I0
sg23
I28
sg24
I0
sbssg25
S'\xbfC\x93\xd6\xe2\xd5OA|^\xa5\xef\x96\x81/U'
p970
ssS'_home_virtubuntu__local_lib_python2_7_site-packages_pyqtgraph_graphicsItems___init__'
p971
(dp972
g6
(dp973
g8
S'_home_virtubuntu__local_lib_python2_7_site-packages_pyqtgraph_graphicsItems___init__.html'
p974
sg10
S'/home/virtubuntu/.local/lib/python2.7/site-packages/pyqtgraph/graphicsItems/__init__'
p975
sg12
g13
(g14
g15
NtRp976
(dp977
g18
I1
sg19
I0
sg20
I0
sg21
I0
sg22
I0
sg23
I0
sg24
I0
sbssg25
S'\xa9\x1f\x08\x00\x92\x18\x1b\x8c\x8e\x95\xd5\xb4i\x8b#\x00'
p978
ssS'_usr_local_lib_python2_7_dist-packages_numpy_polynomial_laguerre'
p979
(dp980
g6
(dp981
g8
S'_usr_local_lib_python2_7_dist-packages_numpy_polynomial_laguerre.html'
p982
sg10
S'/usr/local/lib/python2.7/dist-packages/numpy/polynomial/laguerre'
p983
sg12
g13
(g14
g15
NtRp984
(dp985
g18
I1
sg19
I0
sg20
I379
sg21
I0
sg22
I0
sg23
I341
sg24
I0
sbssg25
S'<n\x15\xc6\x1c\x98\xe5\x9f\xf0\xebE\xab\x92\xe8w]'
p986
ssS'_home_virtubuntu__local_lib_python2_7_site-packages_pyqtgraph_widgets_HistogramLUTWidget'
p987
(dp988
g6
(dp989
g8
S'_home_virtubuntu__local_lib_python2_7_site-packages_pyqtgraph_widgets_HistogramLUTWidget.html'
p990
sg10
S'/home/virtubuntu/.local/lib/python2.7/site-packages/pyqtgraph/widgets/HistogramLUTWidget'
p991
sg12
g13
(g14
g15
NtRp992
(dp993
g18
I1
sg19
I0
sg20
I16
sg21
I0
sg22
I0
sg23
I8
sg24
I0
sbssg25
S"\x1e\xb6K'N7\x04\tE\xcd;$2!\xf9~"
p994
ssS'_usr_local_lib_python2_7_dist-packages_numpy_ma_extras'
p995
(dp996
g6
(dp997
g8
S'_usr_local_lib_python2_7_dist-packages_numpy_ma_extras.html'
p998
sg10
S'/usr/local/lib/python2.7/dist-packages/numpy/ma/extras'
p999
sg12
g13
(g14
g15
NtRp1000
(dp1001
g18
I1
sg19
I0
sg20
I610
sg21
I0
sg22
I0
sg23
I527
sg24
I0
sbssg25
S'9W\x8d~\xf2J\x9e\xdc\xc7M\xd2\x92<\xb8\xc1i'
p1002
ssS'_usr_local_lib_python2_7_dist-packages_numpy_fft_helper'
p1003
(dp1004
g6
(dp1005
g8
S'_usr_local_lib_python2_7_dist-packages_numpy_fft_helper.html'
p1006
sg10
S'/usr/local/lib/python2.7/dist-packages/numpy/fft/helper'
p1007
sg12
g13
(g14
g15
NtRp1008
(dp1009
g18
I1
sg19
I0
sg20
I51
sg21
I0
sg22
I0
sg23
I42
sg24
I0
sbssg25
S'\x10\xb4\xb5f\xf8\x0f\xb0\x95K\xc4\xc0B\xf3^\xd7\xe2'
p1010
ssS'_opt_ros_indigo_lib_python2_7_dist-packages_std_msgs_msg__Time'
p1011
(dp1012
g6
(dp1013
g8
S'_opt_ros_indigo_lib_python2_7_dist-packages_std_msgs_msg__Time.html'
p1014
sg10
S'/opt/ros/indigo/lib/python2.7/dist-packages/std_msgs/msg/_Time'
p1015
sg12
g13
(g14
g15
NtRp1016
(dp1017
g18
I1
sg19
I0
sg20
I60
sg21
I0
sg22
I0
sg23
I40
sg24
I0
sbssg25
S'\xb7\xcf\xd3[\x98\xcd\xe4\x83%\xa4(\xfcK=\xaeC'
p1018
ssS'_home_virtubuntu__local_lib_python2_7_site-packages_pyqtgraph_widgets_FeedbackButton'
p1019
(dp1020
g6
(dp1021
g8
S'_home_virtubuntu__local_lib_python2_7_site-packages_pyqtgraph_widgets_FeedbackButton.html'
p1022
sg10
S'/home/virtubuntu/.local/lib/python2.7/site-packages/pyqtgraph/widgets/FeedbackButton'
p1023
sg12
g13
(g14
g15
NtRp1024
(dp1025
g18
I1
sg19
I0
sg20
I108
sg21
I0
sg22
I0
sg23
I88
sg24
I0
sbssg25
S'a"\xd3&\xa9\xa8\xb1\xa4\x83\x7f\x96[\x8a\x88#\xbe'
p1026
ssS'_opt_ros_indigo_lib_python2_7_dist-packages_qt_gui_application_context'
p1027
(dp1028
g6
(dp1029
g8
S'_opt_ros_indigo_lib_python2_7_dist-packages_qt_gui_application_context.html'
p1030
sg10
S'/opt/ros/indigo/lib/python2.7/dist-packages/qt_gui/application_context'
p1031
sg12
g13
(g14
g15
NtRp1032
(dp1033
g18
I1
sg19
I0
sg20
I9
sg21
I0
sg22
I0
sg23
I0
sg24
I0
sbssg25
S'\xb1\xc7\x04a\xdcc\xbex?\xac\xb6)3\x14\x02\xd3'
p1034
ssS'_usr_local_lib_python2_7_dist-packages_numpy_distutils_command_build'
p1035
(dp1036
g6
(dp1037
g8
S'_usr_local_lib_python2_7_dist-packages_numpy_distutils_command_build.html'
p1038
sg10
S'/usr/local/lib/python2.7/dist-packages/numpy/distutils/command/build'
p1039
sg12
g13
(g14
g15
NtRp1040
(dp1041
g18
I1
sg19
I0
sg20
I21
sg21
I0
sg22
I0
sg23
I8
sg24
I0
sbssg25
S'\xffH]\xdb\x9709m\xf4\x18\x915\xa0\xf2\xf2\r'
p1042
ssS'_usr_local_lib_python2_7_dist-packages_numpy_polynomial_hermite'
p1043
(dp1044
g6
(dp1045
g8
S'_usr_local_lib_python2_7_dist-packages_numpy_polynomial_hermite.html'
p1046
sg10
S'/usr/local/lib/python2.7/dist-packages/numpy/polynomial/hermite'
p1047
sg12
g13
(g14
g15
NtRp1048
(dp1049
g18
I1
sg19
I0
sg20
I382
sg21
I0
sg22
I0
sg23
I344
sg24
I0
sbssg25
S'B\xa8e0\xf2\x07\xcbs\x96\xd2\x1a30\xdc\x823'
p1050
ssS'_usr_local_lib_python2_7_dist-packages_numpy_core_getlimits'
p1051
(dp1052
g6
(dp1053
g8
S'_usr_local_lib_python2_7_dist-packages_numpy_core_getlimits.html'
p1054
sg10
S'/usr/local/lib/python2.7/dist-packages/numpy/core/getlimits'
p1055
sg12
g13
(g14
g15
NtRp1056
(dp1057
g18
I1
sg19
I0
sg20
I132
sg21
I0
sg22
I0
sg23
I46
sg24
I0
sbssg25
S'\xee\xedw_\x9e\x9b\x1e\xab\x92\xf7po\x81\xb0\xf8\x0f'
p1058
ssS'_opt_ros_indigo_lib_python2_7_dist-packages_qt_gui_reparent_event'
p1059
(dp1060
g6
(dp1061
g8
S'_opt_ros_indigo_lib_python2_7_dist-packages_qt_gui_reparent_event.html'
p1062
sg10
S'/opt/ros/indigo/lib/python2.7/dist-packages/qt_gui/reparent_event'
p1063
sg12
g13
(g14
g15
NtRp1064
(dp1065
g18
I1
sg19
I0
sg20
I7
sg21
I0
sg22
I0
sg23
I3
sg24
I0
sbssg25
S"\x0f\x87f:\x8a\x94\xf5v\xb2w\x18'\xd5T\xe7,"
p1066
ssS'_home_virtubuntu_catkin_ws_src_arni_arni_gui_src_arni_gui_log_delegate'
p1067
(dp1068
g6
(dp1069
g8
S'_home_virtubuntu_catkin_ws_src_arni_arni_gui_src_arni_gui_log_delegate.html'
p1070
sg10
S'/home/virtubuntu/catkin_ws/src/arni/arni_gui/src/arni_gui/log_delegate'
p1071
sg12
g13
(g14
g15
NtRp1072
(dp1073
g18
I1
sg19
I0
sg20
I9
sg21
I0
sg22
I0
sg23
I0
sg24
I0
sbssg25
S':\xf9\xc0\xd0\r)\xc5_\xfe\xc5\xaf\xc3\x90\xfe \n'
p1074
ssS'_home_virtubuntu__local_lib_python2_7_site-packages_pyqtgraph_Vector'
p1075
(dp1076
g6
(dp1077
g8
S'_home_virtubuntu__local_lib_python2_7_site-packages_pyqtgraph_Vector.html'
p1078
sg10
S'/home/virtubuntu/.local/lib/python2.7/site-packages/pyqtgraph/Vector'
p1079
sg12
g13
(g14
g15
NtRp1080
(dp1081
g18
I1
sg19
I0
sg20
I49
sg21
I0
sg22
I0
sg23
I39
sg24
I0
sbssg25
S's\xb9\x80jak\xe6\xdb\x0c\xf2\xb3\xc6j\x8e\xb2`'
p1082
ssS'_opt_ros_indigo_lib_python2_7_dist-packages_rosgraph_rosenv'
p1083
(dp1084
g6
(dp1085
g8
S'_opt_ros_indigo_lib_python2_7_dist-packages_rosgraph_rosenv.html'
p1086
sg10
S'/opt/ros/indigo/lib/python2.7/dist-packages/rosgraph/rosenv'
p1087
sg12
g13
(g14
g15
NtRp1088
(dp1089
g18
I1
sg19
I0
sg20
I26
sg21
I0
sg22
I0
sg23
I10
sg24
I0
sbssg25
S'\x86\x15\xb3m\xe72\xa0\x8dS(fb\xe3\xc4p\xaf'
p1090
ssS'_home_virtubuntu_catkin_ws_src_arni_rqt_arni_gui_detail_src_rqt_arni_gui_detail_tree_widget'
p1091
(dp1092
g6
(dp1093
g8
S'_home_virtubuntu_catkin_ws_src_arni_rqt_arni_gui_detail_src_rqt_arni_gui_detail_tree_widget.html'
p1094
sg10
S'/home/virtubuntu/catkin_ws/src/arni/rqt_arni_gui_detail/src/rqt_arni_gui_detail/tree_widget'
p1095
sg12
g13
(g14
g15
NtRp1096
(dp1097
g18
I1
sg19
I0
sg20
I153
sg21
I0
sg22
I0
sg23
I21
sg24
I0
sbssg25
S'\xa4.\xf7\xd0$\x89\x91.\x82&E\x1e\x8a\xda\n\x8e'
p1098
ssS'_home_virtubuntu__local_lib_python2_7_site-packages_pyqtgraph_graphicsItems_ButtonItem'
p1099
(dp1100
g6
(dp1101
g8
S'_home_virtubuntu__local_lib_python2_7_site-packages_pyqtgraph_graphicsItems_ButtonItem.html'
p1102
sg10
S'/home/virtubuntu/.local/lib/python2.7/site-packages/pyqtgraph/graphicsItems/ButtonItem'
p1103
sg12
g13
(g14
g15
NtRp1104
(dp1105
g18
I1
sg19
I0
sg20
I43
sg21
I0
sg22
I0
sg23
I15
sg24
I0
sbssg25
S'V\x1fo\x18\x8b\xdfJ_\x00\x1a\xc9/\xa3/\xc2\x92'
p1106
ssS'_opt_ros_indigo_lib_python2_7_dist-packages_roscpp_srv__Empty'
p1107
(dp1108
g6
(dp1109
g8
S'_opt_ros_indigo_lib_python2_7_dist-packages_roscpp_srv__Empty.html'
p1110
sg10
S'/opt/ros/indigo/lib/python2.7/dist-packages/roscpp/srv/_Empty'
p1111
sg12
g13
(g14
g15
NtRp1112
(dp1113
g18
I1
sg19
I0
sg20
I83
sg21
I0
sg22
I0
sg23
I42
sg24
I0
sbssg25
S':\xc2\x14H\xc5\xc25i\xf1\x82a\xc5\x1f\xa93W'
p1114
ssS'_opt_ros_indigo_lib_python2_7_dist-packages_rosgraph_roslogging'
p1115
(dp1116
g6
(dp1117
g8
S'_opt_ros_indigo_lib_python2_7_dist-packages_rosgraph_roslogging.html'
p1118
sg10
S'/opt/ros/indigo/lib/python2.7/dist-packages/rosgraph/roslogging'
p1119
sg12
g13
(g14
g15
NtRp1120
(dp1121
g18
I1
sg19
I0
sg20
I80
sg21
I0
sg22
I0
sg23
I37
sg24
I0
sbssg25
S'\xf0\xaf.\xcb\x000\xfa\xd2E\xf8\xdao\xcb\x13%\x97'
p1122
ssS'_opt_ros_indigo_lib_python2_7_dist-packages_qt_gui_settings'
p1123
(dp1124
g6
(dp1125
g8
S'_opt_ros_indigo_lib_python2_7_dist-packages_qt_gui_settings.html'
p1126
sg10
S'/opt/ros/indigo/lib/python2.7/dist-packages/qt_gui/settings'
p1127
sg12
g13
(g14
g15
NtRp1128
(dp1129
g18
I1
sg19
I0
sg20
I34
sg21
I0
sg22
I0
sg23
I2
sg24
I0
sbssg25
S'\x08\x18\x8f\xeaO\xddy\xb7\x89E\x0e\x9c\xe1\xc6\xe0E'
p1130
ssS'_home_virtubuntu__local_lib_python2_7_site-packages_pyqtgraph_graphicsItems_GraphicsLayout'
p1131
(dp1132
g6
(dp1133
g8
S'_home_virtubuntu__local_lib_python2_7_site-packages_pyqtgraph_graphicsItems_GraphicsLayout.html'
p1134
sg10
S'/home/virtubuntu/.local/lib/python2.7/site-packages/pyqtgraph/graphicsItems/GraphicsLayout'
p1135
sg12
g13
(g14
g15
NtRp1136
(dp1137
g18
I1
sg19
I0
sg20
I90
sg21
I0
sg22
I0
sg23
I17
sg24
I0
sbssg25
S'3\x81\x89\x98\xf6\xa4\x01/\x87\x8bl\xdfg\xd6\xa7\xbb'
p1138
ssS'_home_virtubuntu__local_lib_python2_7_site-packages_pyqtgraph_GraphicsScene___init__'
p1139
(dp1140
g6
(dp1141
g8
S'_home_virtubuntu__local_lib_python2_7_site-packages_pyqtgraph_GraphicsScene___init__.html'
p1142
sg10
S'/home/virtubuntu/.local/lib/python2.7/site-packages/pyqtgraph/GraphicsScene/__init__'
p1143
sg12
g13
(g14
g15
NtRp1144
(dp1145
g18
I1
sg19
I0
sg20
I1
sg21
I0
sg22
I0
sg23
I0
sg24
I0
sbssg25
S'\x15\xfc\x8a\x18\xda$\x03M\xa5\x92\xdb\xf6\x00\xd3\xab='
p1146
ssS'_home_virtubuntu_catkin_ws_src_arni_arni_gui_src_arni_gui_node_item'
p1147
(dp1148
g6
(dp1149
g8
S'_home_virtubuntu_catkin_ws_src_arni_arni_gui_src_arni_gui_node_item.html'
p1150
sg10
S'/home/virtubuntu/catkin_ws/src/arni/arni_gui/src/arni_gui/node_item'
p1151
sg12
g13
(g14
g15
NtRp1152
(dp1153
g18
I1
sg19
I0
sg20
I89
sg21
I0
sg22
I0
sg23
I4
sg24
I0
sbssg25
S'\xd0^\xc5\xd8\x91\xe1\xc9\xaf\xdcu \x9b\t1\xe4<'
p1154
ssS'_home_virtubuntu__local_lib_python2_7_site-packages_pyqtgraph_imageview_ImageView'
p1155
(dp1156
g6
(dp1157
g8
S'_home_virtubuntu__local_lib_python2_7_site-packages_pyqtgraph_imageview_ImageView.html'
p1158
sg10
S'/home/virtubuntu/.local/lib/python2.7/site-packages/pyqtgraph/imageview/ImageView'
p1159
sg12
g13
(g14
g15
NtRp1160
(dp1161
g18
I1
sg19
I0
sg20
I417
sg21
I0
sg22
I0
sg23
I369
sg24
I0
sbssg25
S'\xcd\xa1\x1b\xff\xe1R\x1bpGk\xf9\xf1rF\xe0\xd6'
p1162
ssS'_home_virtubuntu__local_lib_python2_7_site-packages_pyqtgraph_metaarray_MetaArray'
p1163
(dp1164
g6
(dp1165
g8
S'_home_virtubuntu__local_lib_python2_7_site-packages_pyqtgraph_metaarray_MetaArray.html'
p1166
sg10
S'/home/virtubuntu/.local/lib/python2.7/site-packages/pyqtgraph/metaarray/MetaArray'
p1167
sg12
g13
(g14
g15
NtRp1168
(dp1169
g18
I1
sg19
I0
sg20
I840
sg21
I0
sg22
I0
sg23
I750
sg24
I0
sbssg25
S'\tT(\x93\xeb*q\x1b\xbdX\x84\x19\xb7\r\xc6:'
p1170
ssS'_home_virtubuntu__local_lib_python2_7_site-packages_pyqtgraph_graphicsItems_ArrowItem'
p1171
(dp1172
g6
(dp1173
g8
S'_home_virtubuntu__local_lib_python2_7_site-packages_pyqtgraph_graphicsItems_ArrowItem.html'
p1174
sg10
S'/home/virtubuntu/.local/lib/python2.7/site-packages/pyqtgraph/graphicsItems/ArrowItem'
p1175
sg12
g13
(g14
g15
NtRp1176
(dp1177
g18
I1
sg19
I0
sg20
I51
sg21
I0
sg22
I0
sg23
I40
sg24
I0
sbssg25
S's=!\xac\xe8\x99\xca\xe1\xb6\xc0\x90\x82\x10\x91)\x89'
p1178
ssS'_opt_ros_indigo_lib_python2_7_dist-packages_roscpp_msg___init__'
p1179
(dp1180
g6
(dp1181
g8
S'_opt_ros_indigo_lib_python2_7_dist-packages_roscpp_msg___init__.html'
p1182
sg10
S'/opt/ros/indigo/lib/python2.7/dist-packages/roscpp/msg/__init__'
p1183
sg12
g13
(g14
g15
NtRp1184
(dp1185
g18
I1
sg19
I0
sg20
I1
sg21
I0
sg22
I0
sg23
I0
sg24
I0
sbssg25
S'p[\xef*\x9bH\xfa\x8aNWt!S\xf5\x98\xe5'
p1186
ssS'_home_virtubuntu__local_lib_python2_7_site-packages_pyqtgraph_widgets_GradientWidget'
p1187
(dp1188
g6
(dp1189
g8
S'_home_virtubuntu__local_lib_python2_7_site-packages_pyqtgraph_widgets_GradientWidget.html'
p1190
sg10
S'/home/virtubuntu/.local/lib/python2.7/site-packages/pyqtgraph/widgets/GradientWidget'
p1191
sg12
g13
(g14
g15
NtRp1192
(dp1193
g18
I1
sg19
I0
sg20
I36
sg21
I0
sg22
I0
sg23
I23
sg24
I0
sbssg25
S'\x16Mg\xa8esP\xae\xfa\x87\xed\x9a\xef\x07$\xd4'
p1194
ssS'_home_virtubuntu__local_lib_python2_7_site-packages_pyqtgraph_graphicsItems_PlotItem_PlotItem'
p1195
(dp1196
g6
(dp1197
g8
S'_home_virtubuntu__local_lib_python2_7_site-packages_pyqtgraph_graphicsItems_PlotItem_PlotItem.html'
p1198
sg10
S'/home/virtubuntu/.local/lib/python2.7/site-packages/pyqtgraph/graphicsItems/PlotItem/PlotItem'
p1199
sg12
g13
(g14
g15
NtRp1200
(dp1201
g18
I1
sg19
I0
sg20
I743
sg21
I0
sg22
I0
sg23
I425
sg24
I0
sbssg25
S'\xc4v\x0f\xef\xa9\xe3\x94\xf3\xa6\xfc\xb4\xa8\xa1\x1dfI'
p1202
ssS'_usr_local_lib_python2_7_dist-packages_numpy_polynomial_polyutils'
p1203
(dp1204
g6
(dp1205
g8
S'_usr_local_lib_python2_7_dist-packages_numpy_polynomial_polyutils.html'
p1206
sg10
S'/usr/local/lib/python2.7/dist-packages/numpy/polynomial/polyutils'
p1207
sg12
g13
(g14
g15
NtRp1208
(dp1209
g18
I1
sg19
I0
sg20
I67
sg21
I0
sg22
I0
sg23
I48
sg24
I0
sbssg25
S'\xf9\xd0\xda#\x93\xcd\xcf\x91Z\xbd\xe5\xd9}\x8e\xe7\xf7'
p1210
ssS'_opt_ros_indigo_lib_python2_7_dist-packages_qt_gui_dockable_main_window'
p1211
(dp1212
g6
(dp1213
g8
S'_opt_ros_indigo_lib_python2_7_dist-packages_qt_gui_dockable_main_window.html'
p1214
sg10
S'/opt/ros/indigo/lib/python2.7/dist-packages/qt_gui/dockable_main_window'
p1215
sg12
g13
(g14
g15
NtRp1216
(dp1217
g18
I1
sg19
I0
sg20
I5
sg21
I0
sg22
I0
sg23
I0
sg24
I0
sbssg25
S'\xea\x9c\xe0\x9f+l\xe3c\xe6\x9f:\xac\x928\xe6}'
p1218
ssS'_opt_ros_indigo_lib_python2_7_dist-packages_rospy_core'
p1219
(dp1220
g6
(dp1221
g8
S'_opt_ros_indigo_lib_python2_7_dist-packages_rospy_core.html'
p1222
sg10
S'/opt/ros/indigo/lib/python2.7/dist-packages/rospy/core'
p1223
sg12
g13
(g14
g15
NtRp1224
(dp1225
g18
I1
sg19
I0
sg20
I211
sg21
I0
sg22
I0
sg23
I85
sg24
I0
sbssg25
S'\xd8\x8f~2WI\xa9\xfe\x89\ty\xe9\xb3\x02\x1d\x18'
p1226
ssS'_usr_local_lib_python2_7_dist-packages_numpy_distutils_command_config_compiler'
p1227
(dp1228
g6
(dp1229
g8
S'_usr_local_lib_python2_7_dist-packages_numpy_distutils_command_config_compiler.html'
p1230
sg10
S'/usr/local/lib/python2.7/dist-packages/numpy/distutils/command/config_compiler'
p1231
sg12
g13
(g14
g15
NtRp1232
(dp1233
g18
I1
sg19
I0
sg20
I78
sg21
I0
sg22
I0
sg23
I60
sg24
I0
sbssg25
S'\x98\x80t5R\xea$\xd0"@|T%\x13t\xea'
p1234
ssS'_opt_ros_indigo_lib_python2_7_dist-packages_std_msgs_msg__Empty'
p1235
(dp1236
g6
(dp1237
g8
S'_opt_ros_indigo_lib_python2_7_dist-packages_std_msgs_msg__Empty.html'
p1238
sg10
S'/opt/ros/indigo/lib/python2.7/dist-packages/std_msgs/msg/_Empty'
p1239
sg12
g13
(g14
g15
NtRp1240
(dp1241
g18
I1
sg19
I0
sg20
I39
sg21
I0
sg22
I0
sg23
I21
sg24
I0
sbssg25
S'\x9a\nm\xfd\x14\x81\r@\x87p{ke\xab\x05_'
p1242
ssS'_home_virtubuntu__local_lib_python2_7_site-packages_pyqtgraph_widgets_CheckTable'
p1243
(dp1244
g6
(dp1245
g8
S'_home_virtubuntu__local_lib_python2_7_site-packages_pyqtgraph_widgets_CheckTable.html'
p1246
sg10
S'/home/virtubuntu/.local/lib/python2.7/site-packages/pyqtgraph/widgets/CheckTable'
p1247
sg12
g13
(g14
g15
NtRp1248
(dp1249
g18
I1
sg19
I0
sg20
I76
sg21
I0
sg22
I0
sg23
I64
sg24
I0
sbssg25
S'm\xde\x8c]\x8eC\x00q\x87\x0e\x1c\x9bl\xf4\xfa\xd3'
p1250
ssS'_home_virtubuntu_catkin_ws_src_arni_arni_gui_src_arni_gui_size_delegate'
p1251
(dp1252
g6
(dp1253
g8
S'_home_virtubuntu_catkin_ws_src_arni_arni_gui_src_arni_gui_size_delegate.html'
p1254
sg10
S'/home/virtubuntu/catkin_ws/src/arni/arni_gui/src/arni_gui/size_delegate'
p1255
sg12
g13
(g14
g15
NtRp1256
(dp1257
g18
I1
sg19
I0
sg20
I10
sg21
I0
sg22
I0
sg23
I0
sg24
I0
sbssg25
S"\xb6M\x1b\x03'?\xca\x9f=\xcdmzh\xce*1"
p1258
ssS'_home_virtubuntu_catkin_ws_src_arni_arni_gui_src_arni_gui_connection_item'
p1259
(dp1260
g6
(dp1261
g8
S'_home_virtubuntu_catkin_ws_src_arni_arni_gui_src_arni_gui_connection_item.html'
p1262
sg10
S'/home/virtubuntu/catkin_ws/src/arni/arni_gui/src/arni_gui/connection_item'
p1263
sg12
g13
(g14
g15
NtRp1264
(dp1265
g18
I1
sg19
I0
sg20
I58
sg21
I0
sg22
I0
sg23
I3
sg24
I0
sbssg25
S'g!}lK\xa5a:\xf37@\xd6`98\xdb'
p1266
ssS'_opt_ros_indigo_lib_python2_7_dist-packages_rosgraph_msgs_msg__TopicStatistics'
p1267
(dp1268
g6
(dp1269
g8
S'_opt_ros_indigo_lib_python2_7_dist-packages_rosgraph_msgs_msg__TopicStatistics.html'
p1270
sg10
S'/opt/ros/indigo/lib/python2.7/dist-packages/rosgraph_msgs/msg/_TopicStatistics'
p1271
sg12
g13
(g14
g15
NtRp1272
(dp1273
g18
I1
sg19
I0
sg20
I237
sg21
I0
sg22
I0
sg23
I140
sg24
I0
sbssg25
S' \xc5\x17\xaf\xc7\xef\x12ko\x95\xd3\x03\xf9\xa1\x16\x8e'
p1274
ssS'_opt_ros_indigo_lib_python2_7_dist-packages_roslib_manifest'
p1275
(dp1276
g6
(dp1277
g8
S'_opt_ros_indigo_lib_python2_7_dist-packages_roslib_manifest.html'
p1278
sg10
S'/opt/ros/indigo/lib/python2.7/dist-packages/roslib/manifest'
p1279
sg12
g13
(g14
g15
NtRp1280
(dp1281
g18
I1
sg19
I0
sg20
I41
sg21
I0
sg22
I0
sg23
I24
sg24
I0
sbssg25
S'\xa3\x83d\xac\xe7#\x1fR\xf7C\xd63\xd4y\x98\x82'
p1282
ssS'_opt_ros_indigo_lib_python2_7_dist-packages_qt_gui_plugin_handler'
p1283
(dp1284
g6
(dp1285
g8
S'_opt_ros_indigo_lib_python2_7_dist-packages_qt_gui_plugin_handler.html'
p1286
sg10
S'/opt/ros/indigo/lib/python2.7/dist-packages/qt_gui/plugin_handler'
p1287
sg12
g13
(g14
g15
NtRp1288
(dp1289
g18
I1
sg19
I0
sg20
I260
sg21
I0
sg22
I0
sg23
I57
sg24
I0
sbssg25
S'4-\x96\xf6\x9bQ\xd7\xc4\xfb\xd3\xef\x04\xf6b(v'
p1290
ssS'_opt_ros_indigo_lib_python2_7_dist-packages_std_msgs_msg__UInt32MultiArray'
p1291
(dp1292
g6
(dp1293
g8
S'_opt_ros_indigo_lib_python2_7_dist-packages_std_msgs_msg__UInt32MultiArray.html'
p1294
sg10
S'/opt/ros/indigo/lib/python2.7/dist-packages/std_msgs/msg/_UInt32MultiArray'
p1295
sg12
g13
(g14
g15
NtRp1296
(dp1297
g18
I1
sg19
I0
sg20
I143
sg21
I0
sg22
I0
sg23
I123
sg24
I0
sbssg25
S',&\xe6H\xbb\x80rR\x92\xff}\x11\xfbl\xdde'
p1298
ssS'_usr_share_pyshared_catkin_pkg_package'
p1299
(dp1300
g6
(dp1301
g8
S'_usr_share_pyshared_catkin_pkg_package.html'
p1302
sg10
S'/usr/share/pyshared/catkin_pkg/package'
p1303
sg12
g13
(g14
g15
NtRp1304
(dp1305
g18
I1
sg19
I0
sg20
I324
sg21
I0
sg22
I0
sg23
I274
sg24
I0
sbssg25
S'\xe8\xd3\xd1\x15\x8f\xc1`W\x069y\x12\xcb\xcc\x94\x00'
p1306
ssS'_usr_local_lib_python2_7_dist-packages_numpy_distutils_info'
p1307
(dp1308
g6
(dp1309
g8
S'_usr_local_lib_python2_7_dist-packages_numpy_distutils_info.html'
p1310
sg10
S'/usr/local/lib/python2.7/dist-packages/numpy/distutils/info'
p1311
sg12
g13
(g14
g15
NtRp1312
(dp1313
g18
I1
sg19
I0
sg20
I2
sg21
I0
sg22
I0
sg23
I0
sg24
I0
sbssg25
S'|R3\xb9[b\x12\x1dJ\x02\x89\xc0\xc6\xc9\xcd\x07'
p1314
ssS'_opt_ros_indigo_lib_python2_7_dist-packages_qt_gui_recursive_plugin_provider'
p1315
(dp1316
g6
(dp1317
g8
S'_opt_ros_indigo_lib_python2_7_dist-packages_qt_gui_recursive_plugin_provider.html'
p1318
sg10
S'/opt/ros/indigo/lib/python2.7/dist-packages/qt_gui/recursive_plugin_provider'
p1319
sg12
g13
(g14
g15
NtRp1320
(dp1321
g18
I1
sg19
I0
sg20
I20
sg21
I0
sg22
I0
sg23
I2
sg24
I0
sbssg25
S"'\xf5\x13\x03\x1eS\x1f\x9eTk\x88k]\xf0\x17&"
p1322
ssS'_opt_ros_indigo_lib_python2_7_dist-packages_qt_gui_plugin_context'
p1323
(dp1324
g6
(dp1325
g8
S'_opt_ros_indigo_lib_python2_7_dist-packages_qt_gui_plugin_context.html'
p1326
sg10
S'/opt/ros/indigo/lib/python2.7/dist-packages/qt_gui/plugin_context'
p1327
sg12
g13
(g14
g15
NtRp1328
(dp1329
g18
I1
sg19
I0
sg20
I22
sg21
I0
sg22
I0
sg23
I5
sg24
I0
sbssg25
S'z\xe7\xd4\x97PNv\xd2\xb4\x1a>\x0fv\x08]\xc5'
p1330
ssS'_opt_ros_indigo_lib_python2_7_dist-packages_rqt_gui_py___init__'
p1331
(dp1332
g6
(dp1333
g8
S'_opt_ros_indigo_lib_python2_7_dist-packages_rqt_gui_py___init__.html'
p1334
sg10
S'/opt/ros/indigo/lib/python2.7/dist-packages/rqt_gui_py/__init__'
p1335
sg12
g13
(g14
g15
NtRp1336
(dp1337
g18
I1
sg19
I0
sg20
I0
sg21
I0
sg22
I0
sg23
I0
sg24
I0
sbssg25
S'\xca\xf5\x9f\x7f\x88\xdfa\x831|T\x1d\xbc}\xa5v'
p1338
ssS'_home_virtubuntu__local_lib_python2_7_site-packages_pyqtgraph_widgets___init__'
p1339
(dp1340
g6
(dp1341
g8
S'_home_virtubuntu__local_lib_python2_7_site-packages_pyqtgraph_widgets___init__.html'
p1342
sg10
S'/home/virtubuntu/.local/lib/python2.7/site-packages/pyqtgraph/widgets/__init__'
p1343
sg12
g13
(g14
g15
NtRp1344
(dp1345
g18
I1
sg19
I0
sg20
I0
sg21
I0
sg22
I0
sg23
I0
sg24
I0
sbssg25
S'\x01\xd5\x82\x9d\xe3\xab(`\xccM\xa1\xd4g"LZ'
p1346
ssS'_home_virtubuntu_catkin_ws_src_arni_arni_gui_src_arni_gui_host_item'
p1347
(dp1348
g6
(dp1349
g8
S'_home_virtubuntu_catkin_ws_src_arni_arni_gui_src_arni_gui_host_item.html'
p1350
sg10
S'/home/virtubuntu/catkin_ws/src/arni/arni_gui/src/arni_gui/host_item'
p1351
sg12
g13
(g14
g15
NtRp1352
(dp1353
g18
I1
sg19
I0
sg20
I82
sg21
I0
sg22
I0
sg23
I48
sg24
I0
sbssg25
S'XU\x9c\xd4q\xe5(\xf2\xc9\xe5\xcc6\xf9n\xdf\xe6'
p1354
ssS'_opt_ros_indigo_lib_python2_7_dist-packages_rospy_impl_init'
p1355
(dp1356
g6
(dp1357
g8
S'_opt_ros_indigo_lib_python2_7_dist-packages_rospy_impl_init.html'
p1358
sg10
S'/opt/ros/indigo/lib/python2.7/dist-packages/rospy/impl/init'
p1359
sg12
g13
(g14
g15
NtRp1360
(dp1361
g18
I1
sg19
I0
sg20
I39
sg21
I0
sg22
I0
sg23
I5
sg24
I0
sbssg25
S'\xa5\x90\x90\x16\xd0g\xf7x\x90\xa9\x87\xe5\xad0p\xde'
p1362
ssS'_opt_ros_indigo_lib_python2_7_dist-packages_rqt_gui_py_plugin'
p1363
(dp1364
g6
(dp1365
g8
S'_opt_ros_indigo_lib_python2_7_dist-packages_rqt_gui_py_plugin.html'
p1366
sg10
S'/opt/ros/indigo/lib/python2.7/dist-packages/rqt_gui_py/plugin'
p1367
sg12
g13
(g14
g15
NtRp1368
(dp1369
g18
I1
sg19
I0
sg20
I6
sg21
I0
sg22
I0
sg23
I1
sg24
I0
sbssg25
S'\x81\xc0\x11d\xd2\xa4J\x17P\xbe\xad\x0e0+o\xeb'
p1370
ssS'_usr_local_lib_python2_7_dist-packages_numpy_distutils_command___init__'
p1371
(dp1372
g6
(dp1373
g8
S'_usr_local_lib_python2_7_dist-packages_numpy_distutils_command___init__.html'
p1374
sg10
S'/usr/local/lib/python2.7/dist-packages/numpy/distutils/command/__init__'
p1375
sg12
g13
(g14
g15
NtRp1376
(dp1377
g18
I1
sg19
I0
sg20
I10
sg21
I0
sg22
I0
sg23
I4
sg24
I0
sbssg25
S'\x91\xea~\xe3\x16I\\\xec\xa1\xb4K|m"\xd6\x9c'
p1378
ssS'_usr_local_lib_python2_7_dist-packages_numpy_fft_fftpack'
p1379
(dp1380
g6
(dp1381
g8
S'_usr_local_lib_python2_7_dist-packages_numpy_fft_fftpack.html'
p1382
sg10
S'/usr/local/lib/python2.7/dist-packages/numpy/fft/fftpack'
p1383
sg12
g13
(g14
g15
NtRp1384
(dp1385
g18
I1
sg19
I0
sg20
I109
sg21
I0
sg22
I0
sg23
I86
sg24
I0
sbssg25
S'\xf9\xde@$c[$\xef}zV\xa8p\xd5J\x0e'
p1386
ssS'_home_virtubuntu__local_lib_python2_7_site-packages_pyqtgraph_widgets_PathButton'
p1387
(dp1388
g6
(dp1389
g8
S'_home_virtubuntu__local_lib_python2_7_site-packages_pyqtgraph_widgets_PathButton.html'
p1390
sg10
S'/home/virtubuntu/.local/lib/python2.7/site-packages/pyqtgraph/widgets/PathButton'
p1391
sg12
g13
(g14
g15
NtRp1392
(dp1393
g18
I1
sg19
I0
sg20
I38
sg21
I0
sg22
I0
sg23
I29
sg24
I0
sbssg25
S'\x97j\nf\x11\x010\xc1\x0b\x16\x96\xb6\xa0-c\xff'
p1394
ssS'_home_virtubuntu__local_lib_python2_7_site-packages_pyqtgraph_imageview_ImageViewTemplate_pyqt'
p1395
(dp1396
g6
(dp1397
g8
S'_home_virtubuntu__local_lib_python2_7_site-packages_pyqtgraph_imageview_ImageViewTemplate_pyqt.html'
p1398
sg10
S'/home/virtubuntu/.local/lib/python2.7/site-packages/pyqtgraph/imageview/ImageViewTemplate_pyqt'
p1399
sg12
g13
(g14
g15
NtRp1400
(dp1401
g18
I1
sg19
I0
sg20
I146
sg21
I0
sg22
I0
sg23
I135
sg24
I0
sbssg25
S'T\xc6\x13\x9d\x13sW\xeaK\xfa_\xc2\x9b\xa3\xaa\x96'
p1402
ssS'_opt_ros_indigo_lib_python2_7_dist-packages_std_msgs_msg__Int32'
p1403
(dp1404
g6
(dp1405
g8
S'_opt_ros_indigo_lib_python2_7_dist-packages_std_msgs_msg__Int32.html'
p1406
sg10
S'/opt/ros/indigo/lib/python2.7/dist-packages/std_msgs/msg/_Int32'
p1407
sg12
g13
(g14
g15
NtRp1408
(dp1409
g18
I1
sg19
I0
sg20
I49
sg21
I0
sg22
I0
sg23
I30
sg24
I0
sbssg25
S'\xb1\xfc\xa0\x8a\xc8\xc1\xf3\xe2\xd6\x9a?\xb8M\xa1\x80\x06'
p1410
ssS'_opt_ros_indigo_lib_python2_7_dist-packages_genmsg___init__'
p1411
(dp1412
g6
(dp1413
g8
S'_opt_ros_indigo_lib_python2_7_dist-packages_genmsg___init__.html'
p1414
sg10
S'/opt/ros/indigo/lib/python2.7/dist-packages/genmsg/__init__'
p1415
sg12
g13
(g14
g15
NtRp1416
(dp1417
g18
I1
sg19
I0
sg20
I6
sg21
I0
sg22
I0
sg23
I0
sg24
I0
sbssg25
S'\x7fP\xaaY\xc3hUh\xa69a?\x9f\x92\xa1\x13'
p1418
ssS'_home_virtubuntu__local_lib_python2_7_site-packages_pyqtgraph_graphicsItems_GradientLegend'
p1419
(dp1420
g6
(dp1421
g8
S'_home_virtubuntu__local_lib_python2_7_site-packages_pyqtgraph_graphicsItems_GradientLegend.html'
p1422
sg10
S'/home/virtubuntu/.local/lib/python2.7/site-packages/pyqtgraph/graphicsItems/GradientLegend'
p1423
sg12
g13
(g14
g15
NtRp1424
(dp1425
g18
I1
sg19
I0
sg20
I76
sg21
I0
sg22
I0
sg23
I66
sg24
I0
sbssg25
S'\x9d\xf2s\x17\x04\xb99\x14\x0b\xa3\xe0\x99\xf3\xad\xa0~'
p1426
ssS'_usr_local_lib_python2_7_dist-packages_numpy_distutils_command_install_data'
p1427
(dp1428
g6
(dp1429
g8
S'_usr_local_lib_python2_7_dist-packages_numpy_distutils_command_install_data.html'
p1430
sg10
S'/usr/local/lib/python2.7/dist-packages/numpy/distutils/command/install_data'
p1431
sg12
g13
(g14
g15
NtRp1432
(dp1433
g18
I1
sg19
I0
sg20
I11
sg21
I0
sg22
I0
sg23
I4
sg24
I0
sbssg25
S'\xe8=gUXt\x96\x7f\\c\x82\xf0\xe9\xbd\x14Q'
p1434
ssS'_usr_local_lib_python2_7_dist-packages_numpy_lib_arraysetops'
p1435
(dp1436
g6
(dp1437
g8
S'_usr_local_lib_python2_7_dist-packages_numpy_lib_arraysetops.html'
p1438
sg10
S'/usr/local/lib/python2.7/dist-packages/numpy/lib/arraysetops'
p1439
sg12
g13
(g14
g15
NtRp1440
(dp1441
g18
I1
sg19
I0
sg20
I98
sg21
I0
sg22
I0
sg23
I87
sg24
I0
sbssg25
S'S\xb4\xb2\x9c\x8f\xb02r7+\x96\xc3_\xa9qQ'
p1442
ssS'_opt_ros_indigo_lib_python2_7_dist-packages_rospy_impl_paramserver'
p1443
(dp1444
g6
(dp1445
g8
S'_opt_ros_indigo_lib_python2_7_dist-packages_rospy_impl_paramserver.html'
p1446
sg10
S'/opt/ros/indigo/lib/python2.7/dist-packages/rospy/impl/paramserver'
p1447
sg12
g13
(g14
g15
NtRp1448
(dp1449
g18
I1
sg19
I0
sg20
I30
sg21
I0
sg22
I0
sg23
I19
sg24
I0
sbssg25
S' \xf6\x85\xf7D.{?\xc2\xd0\x07\\+\xdd\x04\x80'
p1450
ssS'_usr_local_lib_python2_7_dist-packages_numpy_linalg_info'
p1451
(dp1452
g6
(dp1453
g8
S'_usr_local_lib_python2_7_dist-packages_numpy_linalg_info.html'
p1454
sg10
S'/usr/local/lib/python2.7/dist-packages/numpy/linalg/info'
p1455
sg12
g13
(g14
g15
NtRp1456
(dp1457
g18
I1
sg19
I0
sg20
I2
sg21
I0
sg22
I0
sg23
I0
sg24
I0
sbssg25
S"\xaf\xc5'e\x12\xe3\xb15\xa1\xf0]*we\xdc5"
p1458
ssS'_usr_local_lib_python2_7_dist-packages_numpy_distutils_command_build_src'
p1459
(dp1460
g6
(dp1461
g8
S'_usr_local_lib_python2_7_dist-packages_numpy_distutils_command_build_src.html'
p1462
sg10
S'/usr/local/lib/python2.7/dist-packages/numpy/distutils/command/build_src'
p1463
sg12
g13
(g14
g15
NtRp1464
(dp1465
g18
I1
sg19
I0
sg20
I566
sg21
I0
sg22
I0
sg23
I515
sg24
I0
sbssg25
S'\xc2\x88H\x85\x96\xc6\xce!\xd3\xa1qy\xd6\xcb(\x1f'
p1466
ssS'_home_virtubuntu__local_lib_python2_7_site-packages_pyqtgraph_SignalProxy'
p1467
(dp1468
g6
(dp1469
g8
S'_home_virtubuntu__local_lib_python2_7_site-packages_pyqtgraph_SignalProxy.html'
p1470
sg10
S'/home/virtubuntu/.local/lib/python2.7/site-packages/pyqtgraph/SignalProxy'
p1471
sg12
g13
(g14
g15
NtRp1472
(dp1473
g18
I1
sg19
I0
sg20
I67
sg21
I0
sg22
I0
sg23
I55
sg24
I0
sbssg25
S'\xee\x00\xc6\xd8\xdanqk\x8b\xa67m\x8cW\xda\xdf'
p1474
ssS'_usr_local_lib_python2_7_dist-packages_numpy_lib_info'
p1475
(dp1476
g6
(dp1477
g8
S'_usr_local_lib_python2_7_dist-packages_numpy_lib_info.html'
p1478
sg10
S'/usr/local/lib/python2.7/dist-packages/numpy/lib/info'
p1479
sg12
g13
(g14
g15
NtRp1480
(dp1481
g18
I1
sg19
I0
sg20
I3
sg21
I0
sg22
I0
sg23
I0
sg24
I0
sbssg25
S'\x07\x9e\xa6!o8\x00`\xcf1\x0cz\xe8j*;'
p1482
ssS'_usr_share_pyshared_rospkg_rospack'
p1483
(dp1484
g6
(dp1485
g8
S'_usr_share_pyshared_rospkg_rospack.html'
p1486
sg10
S'/usr/share/pyshared/rospkg/rospack'
p1487
sg12
g13
(g14
g15
NtRp1488
(dp1489
g18
I1
sg19
I0
sg20
I215
sg21
I0
sg22
I0
sg23
I139
sg24
I0
sbssg25
S"\xb1-\xf6\x18\xdd'\xef\x1c.\x01\x0c\x18'&\xca*"
p1490
ssS'_opt_ros_indigo_lib_python2_7_dist-packages_genpy___init__'
p1491
(dp1492
g6
(dp1493
g8
S'_opt_ros_indigo_lib_python2_7_dist-packages_genpy___init__.html'
p1494
sg10
S'/opt/ros/indigo/lib/python2.7/dist-packages/genpy/__init__'
p1495
sg12
g13
(g14
g15
NtRp1496
(dp1497
g18
I1
sg19
I0
sg20
I3
sg21
I0
sg22
I0
sg23
I0
sg24
I0
sbssg25
S'\xb9\x99\xec\xd1s\xf9,\x90&\x1c\xdePon\xc8\xaa'
p1498
ssS'_home_virtubuntu_catkin_ws_devel_lib_python2_7_dist-packages_arni_gui___init__'
p1499
(dp1500
g6
(dp1501
g8
S'_home_virtubuntu_catkin_ws_devel_lib_python2_7_dist-packages_arni_gui___init__.html'
p1502
sg10
S'/home/virtubuntu/catkin_ws/devel/lib/python2.7/dist-packages/arni_gui/__init__'
p1503
sg12
g13
(g14
g15
NtRp1504
(dp1505
g18
I1
sg19
I0
sg20
I28
sg21
I0
sg22
I0
sg23
I1
sg24
I0
sbssg25
S'\xfc\x0ep;\xaa\xd4\xf0\x9f\xa7\x82\x0fxc\x1ce\xe4'
p1506
ssS'_opt_ros_indigo_lib_python2_7_dist-packages_std_msgs_msg__Int64MultiArray'
p1507
(dp1508
g6
(dp1509
g8
S'_opt_ros_indigo_lib_python2_7_dist-packages_std_msgs_msg__Int64MultiArray.html'
p1510
sg10
S'/opt/ros/indigo/lib/python2.7/dist-packages/std_msgs/msg/_Int64MultiArray'
p1511
sg12
g13
(g14
g15
NtRp1512
(dp1513
g18
I1
sg19
I0
sg20
I143
sg21
I0
sg22
I0
sg23
I123
sg24
I0
sbssg25
S'\x95\xcc\x1b4\xea \xa0g\xed\x1cm\x03\x12\xf0O\xe5'
p1514
ssS'_opt_ros_indigo_lib_python2_7_dist-packages_rospy_msproxy'
p1515
(dp1516
g6
(dp1517
g8
S'_opt_ros_indigo_lib_python2_7_dist-packages_rospy_msproxy.html'
p1518
sg10
S'/opt/ros/indigo/lib/python2.7/dist-packages/rospy/msproxy'
p1519
sg12
g13
(g14
g15
NtRp1520
(dp1521
g18
I1
sg19
I0
sg20
I76
sg21
I0
sg22
I0
sg23
I39
sg24
I0
sbssg25
S'\x0c?\xd5d5\xe8\xd7\xcd\x1fj\xff\xdb\xd12\xb3t'
p1522
ssS'_home_virtubuntu__local_lib_python2_7_site-packages_pyqtgraph_Transform3D'
p1523
(dp1524
g6
(dp1525
g8
S'_home_virtubuntu__local_lib_python2_7_site-packages_pyqtgraph_Transform3D.html'
p1526
sg10
S'/home/virtubuntu/.local/lib/python2.7/site-packages/pyqtgraph/Transform3D'
p1527
sg12
g13
(g14
g15
NtRp1528
(dp1529
g18
I1
sg19
I0
sg20
I22
sg21
I0
sg22
I0
sg23
I14
sg24
I0
sbssg25
S'\x9a+]\xebtA\xbe8\xb3\xe6c\x0cXL\xa2.'
p1530
ssS'_opt_ros_indigo_lib_python2_7_dist-packages_genpy_message'
p1531
(dp1532
g6
(dp1533
g8
S'_opt_ros_indigo_lib_python2_7_dist-packages_genpy_message.html'
p1534
sg10
S'/opt/ros/indigo/lib/python2.7/dist-packages/genpy/message'
p1535
sg12
g13
(g14
g15
NtRp1536
(dp1537
g18
I1
sg19
I0
sg20
I305
sg21
I0
sg22
I0
sg23
I239
sg24
I0
sbssg25
S'\xd5\xe5\xcbD\x14\xd1#\xe7\xb4d\xcf\xdeHT\xad3'
p1538
ssS'_usr_local_lib_python2_7_dist-packages_numpy__import_tools'
p1539
(dp1540
g6
(dp1541
g8
S'_usr_local_lib_python2_7_dist-packages_numpy__import_tools.html'
p1542
sg10
S'/usr/local/lib/python2.7/dist-packages/numpy/_import_tools'
p1543
sg12
g13
(g14
g15
NtRp1544
(dp1545
g18
I1
sg19
I0
sg20
I224
sg21
I0
sg22
I0
sg23
I203
sg24
I0
sbssg25
S'\xe7\xcb\xd4U\xd4\x1f(s\xb1\x1a\x7f\x19\xe5!\xff\xbf'
p1546
ssS'_usr_local_lib_python2_7_dist-packages_numpy_oldnumeric_compat'
p1547
(dp1548
g6
(dp1549
g8
S'_usr_local_lib_python2_7_dist-packages_numpy_oldnumeric_compat.html'
p1550
sg10
S'/usr/local/lib/python2.7/dist-packages/numpy/oldnumeric/compat'
p1551
sg12
g13
(g14
g15
NtRp1552
(dp1553
g18
I1
sg19
I0
sg20
I72
sg21
I0
sg22
I0
sg23
I37
sg24
I0
sbssg25
S"\xe8\x83\xe0\x0evX=\xba\xd5n\xa00y\xa8'G"
p1554
ssS'_opt_ros_indigo_lib_python2_7_dist-packages_roscpp_srv___init__'
p1555
(dp1556
g6
(dp1557
g8
S'_opt_ros_indigo_lib_python2_7_dist-packages_roscpp_srv___init__.html'
p1558
sg10
S'/opt/ros/indigo/lib/python2.7/dist-packages/roscpp/srv/__init__'
p1559
sg12
g13
(g14
g15
NtRp1560
(dp1561
g18
I1
sg19
I0
sg20
I3
sg21
I0
sg22
I0
sg23
I0
sg24
I0
sbssg25
S'\x1a1\x08\x9d\x9f\xdf\xa9\xf3\x9d\xf1\xd0\x0f\x18\x88?\x92'
p1562
ssS'_opt_ros_indigo_lib_python2_7_dist-packages_python_qt_binding___init__'
p1563
(dp1564
g6
(dp1565
g8
S'_opt_ros_indigo_lib_python2_7_dist-packages_python_qt_binding___init__.html'
p1566
sg10
S'/opt/ros/indigo/lib/python2.7/dist-packages/python_qt_binding/__init__'
p1567
sg12
g13
(g14
g15
NtRp1568
(dp1569
g18
I1
sg19
I0
sg20
I9
sg21
I0
sg22
I0
sg23
I0
sg24
I0
sbssg25
S' \xe4P\xb3F\xfb\xb4*i\xbc*\x8b\x11h*}'
p1570
ssS'_home_virtubuntu__local_lib_python2_7_site-packages_pyqtgraph_graphicsItems_ErrorBarItem'
p1571
(dp1572
g6
(dp1573
g8
S'_home_virtubuntu__local_lib_python2_7_site-packages_pyqtgraph_graphicsItems_ErrorBarItem.html'
p1574
sg10
S'/home/virtubuntu/.local/lib/python2.7/site-packages/pyqtgraph/graphicsItems/ErrorBarItem'
p1575
sg12
g13
(g14
g15
NtRp1576
(dp1577
g18
I1
sg19
I0
sg20
I84
sg21
I0
sg22
I0
sg23
I74
sg24
I0
sbssg25
S'w\x94i\x01\xf8\x85\x95\xee"sX\xbbQm\xa3\x12'
p1578
ssS'_usr_local_lib_python2_7_dist-packages_numpy_distutils_command_config'
p1579
(dp1580
g6
(dp1581
g8
S'_usr_local_lib_python2_7_dist-packages_numpy_distutils_command_config.html'
p1582
sg10
S'/usr/local/lib/python2.7/dist-packages/numpy/distutils/command/config'
p1583
sg12
g13
(g14
g15
NtRp1584
(dp1585
g18
I1
sg19
I0
sg20
I244
sg21
I0
sg22
I0
sg23
I205
sg24
I0
sbssg25
S"`\x0b\x85\xb9\xd1[\x94_\xe3\x93\xa1!\x8f'\xe4\x0e"
p1586
ssS'_home_virtubuntu__local_lib_python2_7_site-packages_pyqtgraph_graphicsItems_ItemGroup'
p1587
(dp1588
g6
(dp1589
g8
S'_home_virtubuntu__local_lib_python2_7_site-packages_pyqtgraph_graphicsItems_ItemGroup.html'
p1590
sg10
S'/home/virtubuntu/.local/lib/python2.7/site-packages/pyqtgraph/graphicsItems/ItemGroup'
p1591
sg12
g13
(g14
g15
NtRp1592
(dp1593
g18
I1
sg19
I0
sg20
I14
sg21
I0
sg22
I0
sg23
I2
sg24
I0
sbssg25
S'r\x9c\xb1\xbe\xb05\xc8\x05\x90\x00\xc2t\x88dwb'
p1594
ssS'_opt_ros_indigo_lib_python2_7_dist-packages_rospy_impl_registration'
p1595
(dp1596
g6
(dp1597
g8
S'_opt_ros_indigo_lib_python2_7_dist-packages_rospy_impl_registration.html'
p1598
sg10
S'/opt/ros/indigo/lib/python2.7/dist-packages/rospy/impl/registration'
p1599
sg12
g13
(g14
g15
NtRp1600
(dp1601
g18
I1
sg19
I0
sg20
I257
sg21
I0
sg22
I0
sg23
I115
sg24
I0
sbssg25
S'\nN\x88#\xbak(\x8c|\x0f\xad\xcbHFp:'
p1602
ssS'_home_virtubuntu__local_lib_python2_7_site-packages_pyqtgraph_exporters_Matplotlib'
p1603
(dp1604
g6
(dp1605
g8
S'_home_virtubuntu__local_lib_python2_7_site-packages_pyqtgraph_exporters_Matplotlib.html'
p1606
sg10
S'/home/virtubuntu/.local/lib/python2.7/site-packages/pyqtgraph/exporters/Matplotlib'
p1607
sg12
g13
(g14
g15
NtRp1608
(dp1609
g18
I1
sg19
I0
sg20
I54
sg21
I0
sg22
I0
sg23
I40
sg24
I0
sbssg25
S'\xe5R\xbe\xfc\x15\x180\x1b2\x91:\x91\xf9\x8b\xf5\x8b'
p1610
ssS'_opt_ros_indigo_lib_python2_7_dist-packages_rosgraph___init__'
p1611
(dp1612
g6
(dp1613
g8
S'_opt_ros_indigo_lib_python2_7_dist-packages_rosgraph___init__.html'
p1614
sg10
S'/opt/ros/indigo/lib/python2.7/dist-packages/rosgraph/__init__'
p1615
sg12
g13
(g14
g15
NtRp1616
(dp1617
g18
I1
sg19
I0
sg20
I10
sg21
I0
sg22
I0
sg23
I3
sg24
I0
sbssg25
S'vX6\xf2-?\xd9\x8e\xf4\x088\xc5\x01E\xb5\xbd'
p1618
ssS'_home_virtubuntu__local_lib_python2_7_site-packages_pyqtgraph_graphicsItems_ScatterPlotItem'
p1619
(dp1620
g6
(dp1621
g8
S'_home_virtubuntu__local_lib_python2_7_site-packages_pyqtgraph_graphicsItems_ScatterPlotItem.html'
p1622
sg10
S'/home/virtubuntu/.local/lib/python2.7/site-packages/pyqtgraph/graphicsItems/ScatterPlotItem'
p1623
sg12
g13
(g14
g15
NtRp1624
(dp1625
g18
I1
sg19
I0
sg20
I557
sg21
I0
sg22
I0
sg23
I361
sg24
I0
sbssg25
S'-t[\xc0!2\xc46PA\n\xcb\xcc\xd2\xccV'
p1626
ssS'_home_virtubuntu_catkin_ws_src_arni_rqt_arni_gui_overview_src_rqt_arni_gui_overview_arni_gui_overview'
p1627
(dp1628
g6
(dp1629
g8
S'_home_virtubuntu_catkin_ws_src_arni_rqt_arni_gui_overview_src_rqt_arni_gui_overview_arni_gui_overview.html'
p1630
sg10
S'/home/virtubuntu/catkin_ws/src/arni/rqt_arni_gui_overview/src/rqt_arni_gui_overview/arni_gui_overview'
p1631
sg12
g13
(g14
g15
NtRp1632
(dp1633
g18
I1
sg19
I0
sg20
I30
sg21
I0
sg22
I0
sg23
I0
sg24
I0
sbssg25
S'\x83\xa5\x0f,\xcf\xa6\xfe\x0e\xfa\x16z\x97\xd3!;\xa4'
p1634
ssS'_opt_ros_indigo_lib_python2_7_dist-packages_rqt_topic_topic'
p1635
(dp1636
g6
(dp1637
g8
S'_opt_ros_indigo_lib_python2_7_dist-packages_rqt_topic_topic.html'
p1638
sg10
S'/opt/ros/indigo/lib/python2.7/dist-packages/rqt_topic/topic'
p1639
sg12
g13
(g14
g15
NtRp1640
(dp1641
g18
I1
sg19
I0
sg20
I13
sg21
I0
sg22
I0
sg23
I1
sg24
I0
sbssg25
S'\x1a\xb9+\xd3B\xf0v\x06\xf3\xb8\x92u\x99\xc3\xa2\xd1'
p1642
ssS'_opt_ros_indigo_lib_python2_7_dist-packages_std_msgs_msg__String'
p1643
(dp1644
g6
(dp1645
g8
S'_opt_ros_indigo_lib_python2_7_dist-packages_std_msgs_msg__String.html'
p1646
sg10
S'/opt/ros/indigo/lib/python2.7/dist-packages/std_msgs/msg/_String'
p1647
sg12
g13
(g14
g15
NtRp1648
(dp1649
g18
I1
sg19
I0
sg20
I72
sg21
I0
sg22
I0
sg23
I52
sg24
I0
sbssg25
S'\xd3\x10\xfd!\xa7A\xdb9\xfd\xba\xf3"/\xb8}\xc4'
p1650
ssS'_opt_ros_indigo_lib_python2_7_dist-packages_std_msgs_msg__Int8'
p1651
(dp1652
g6
(dp1653
g8
S'_opt_ros_indigo_lib_python2_7_dist-packages_std_msgs_msg__Int8.html'
p1654
sg10
S'/opt/ros/indigo/lib/python2.7/dist-packages/std_msgs/msg/_Int8'
p1655
sg12
g13
(g14
g15
NtRp1656
(dp1657
g18
I1
sg19
I0
sg20
I49
sg21
I0
sg22
I0
sg23
I30
sg24
I0
sbssg25
S'k}WH\xa8\xcfM\x857\x01]:\xecJ\\\xc8'
p1658
ssS'_opt_ros_indigo_lib_python2_7_dist-packages_rosgraph_msgs_msg__Clock'
p1659
(dp1660
g6
(dp1661
g8
S'_opt_ros_indigo_lib_python2_7_dist-packages_rosgraph_msgs_msg__Clock.html'
p1662
sg10
S'/opt/ros/indigo/lib/python2.7/dist-packages/rosgraph_msgs/msg/_Clock'
p1663
sg12
g13
(g14
g15
NtRp1664
(dp1665
g18
I1
sg19
I0
sg20
I60
sg21
I0
sg22
I0
sg23
I40
sg24
I0
sbssg25
S'\xe1h \xc9\xa6\xc4\xdd\xb0\xb3\x8e\xfc2b\x06\x01b'
p1666
ssS'_opt_ros_indigo_lib_python2_7_dist-packages_genmsg_names'
p1667
(dp1668
g6
(dp1669
g8
S'_opt_ros_indigo_lib_python2_7_dist-packages_genmsg_names.html'
p1670
sg10
S'/opt/ros/indigo/lib/python2.7/dist-packages/genmsg/names'
p1671
sg12
g13
(g14
g15
NtRp1672
(dp1673
g18
I1
sg19
I0
sg20
I36
sg21
I0
sg22
I0
sg23
I20
sg24
I0
sbssg25
S'\x90\xef\xd8\xb7\xbf\xb7\x87\xae\xbdv\xe8!\x8d\xe76\x86'
p1674
ssS'_usr_local_lib_python2_7_dist-packages_numpy_lib___init__'
p1675
(dp1676
g6
(dp1677
g8
S'_usr_local_lib_python2_7_dist-packages_numpy_lib___init__.html'
p1678
sg10
S'/usr/local/lib/python2.7/dist-packages/numpy/lib/__init__'
p1679
sg12
g13
(g14
g15
NtRp1680
(dp1681
g18
I1
sg19
I0
sg20
I38
sg21
I0
sg22
I0
sg23
I0
sg24
I0
sbssg25
S'PM\xbe\xe6\n\x06r\x9d\xb80\xfe\x93\xdb\x94\x88\x18'
p1682
ssS'_usr_local_lib_python2_7_dist-packages_numpy_core_numeric'
p1683
(dp1684
g6
(dp1685
g8
S'_usr_local_lib_python2_7_dist-packages_numpy_core_numeric.html'
p1686
sg10
S'/usr/local/lib/python2.7/dist-packages/numpy/core/numeric'
p1687
sg12
g13
(g14
g15
NtRp1688
(dp1689
g18
I1
sg19
I0
sg20
I523
sg21
I0
sg22
I0
sg23
I333
sg24
I0
sbssg25
S'\xf0\xa98\xe5\xed\xffp\xa3#q\x17aI\xe4/#'
p1690
ssS'_opt_ros_indigo_lib_python2_7_dist-packages_qt_gui_errors'
p1691
(dp1692
g6
(dp1693
g8
S'_opt_ros_indigo_lib_python2_7_dist-packages_qt_gui_errors.html'
p1694
sg10
S'/opt/ros/indigo/lib/python2.7/dist-packages/qt_gui/errors'
p1695
sg12
g13
(g14
g15
NtRp1696
(dp1697
g18
I1
sg19
I0
sg20
I2
sg21
I0
sg22
I0
sg23
I0
sg24
I0
sbssg25
S'\xca\xff\x8e\x8e\x11J>\x113\x13\n\x8cc\x0e\xab\xea'
p1698
ssS'_opt_ros_indigo_lib_python2_7_dist-packages_catkin_find_in_workspaces'
p1699
(dp1700
g6
(dp1701
g8
S'_opt_ros_indigo_lib_python2_7_dist-packages_catkin_find_in_workspaces.html'
p1702
sg10
S'/opt/ros/indigo/lib/python2.7/dist-packages/catkin/find_in_workspaces'
p1703
sg12
g13
(g14
g15
NtRp1704
(dp1705
g18
I1
sg19
I0
sg20
I66
sg21
I0
sg22
I0
sg23
I60
sg24
I0
sbssg25
S"6\x97\xc7\x95\x84p'@X\xec\xc7\x0c\x08\xc2\xd8}"
p1706
ssS'_home_virtubuntu_catkin_ws_src_arni_arni_gui_src_arni_gui_topic_item_sub'
p1707
(dp1708
g6
(dp1709
g8
S'_home_virtubuntu_catkin_ws_src_arni_arni_gui_src_arni_gui_topic_item_sub.html'
p1710
sg10
S'/home/virtubuntu/catkin_ws/src/arni/arni_gui/src/arni_gui/topic_item_sub'
p1711
sg12
g13
(g14
g15
NtRp1712
(dp1713
g18
I1
sg19
I0
sg20
I39
sg21
I0
sg22
I0
sg23
I5
sg24
I0
sbssg25
S'\x1f\xc1b\xb8\x17Spx\x10p\xae\xa7\x0f\xb0`\xca'
p1714
ssS'_home_virtubuntu__local_lib_python2_7_site-packages_pyqtgraph_widgets_VerticalLabel'
p1715
(dp1716
g6
(dp1717
g8
S'_home_virtubuntu__local_lib_python2_7_site-packages_pyqtgraph_widgets_VerticalLabel.html'
p1718
sg10
S'/home/virtubuntu/.local/lib/python2.7/site-packages/pyqtgraph/widgets/VerticalLabel'
p1719
sg12
g13
(g14
g15
NtRp1720
(dp1721
g18
I1
sg19
I0
sg20
I60
sg21
I0
sg22
I0
sg23
I52
sg24
I0
sbssg25
S'\xde\xd0f\x9f\xcbT\xfe\x8c\xbb\xd8\xc9\xc9G\x13\x1a\x8a'
p1722
ssS'_home_virtubuntu_catkin_ws_devel_lib_python2_7_dist-packages_arni_msgs___init__'
p1723
(dp1724
g6
(dp1725
g8
S'_home_virtubuntu_catkin_ws_devel_lib_python2_7_dist-packages_arni_msgs___init__.html'
p1726
sg10
S'/home/virtubuntu/catkin_ws/devel/lib/python2.7/dist-packages/arni_msgs/__init__'
p1727
sg12
g13
(g14
g15
NtRp1728
(dp1729
g18
I1
sg19
I0
sg20
I0
sg21
I0
sg22
I0
sg23
I0
sg24
I0
sbssg25
S'\xca\xf5\x9f\x7f\x88\xdfa\x831|T\x1d\xbc}\xa5v'
p1730
ssS'_opt_ros_indigo_lib_python2_7_dist-packages_std_msgs_msg__Header'
p1731
(dp1732
g6
(dp1733
g8
S'_opt_ros_indigo_lib_python2_7_dist-packages_std_msgs_msg__Header.html'
p1734
sg10
S'/opt/ros/indigo/lib/python2.7/dist-packages/std_msgs/msg/_Header'
p1735
sg12
g13
(g14
g15
NtRp1736
(dp1737
g18
I1
sg19
I0
sg20
I98
sg21
I0
sg22
I0
sg23
I74
sg24
I0
sbssg25
S'\xb3\xaf\xa4\x8de\xa9_UY\xef\x99j?Af\x1e'
p1738
ssS'_usr_share_pyshared_rospkg_stack'
p1739
(dp1740
g6
(dp1741
g8
S'_usr_share_pyshared_rospkg_stack.html'
p1742
sg10
S'/usr/share/pyshared/rospkg/stack'
p1743
sg12
g13
(g14
g15
NtRp1744
(dp1745
g18
I1
sg19
I0
sg20
I123
sg21
I0
sg22
I0
sg23
I99
sg24
I0
sbssg25
S'Vr\x00\xc5\x15\xf7\xac\xcf\xf3\xcdb\xd8\xf2O|\x7f'
p1746
ssS'_opt_ros_indigo_lib_python2_7_dist-packages_rosnode___init__'
p1747
(dp1748
g6
(dp1749
g8
S'_opt_ros_indigo_lib_python2_7_dist-packages_rosnode___init__.html'
p1750
sg10
S'/opt/ros/indigo/lib/python2.7/dist-packages/rosnode/__init__'
p1751
sg12
g13
(g14
g15
NtRp1752
(dp1753
g18
I1
sg19
I0
sg20
I492
sg21
I0
sg22
I0
sg23
I440
sg24
I0
sbssg25
S'X\xa8s\xae\xb91\x01o<\x89vwGV2@'
p1754
ssS'_opt_ros_indigo_lib_python2_7_dist-packages_genpy_rostime'
p1755
(dp1756
g6
(dp1757
g8
S'_opt_ros_indigo_lib_python2_7_dist-packages_genpy_rostime.html'
p1758
sg10
S'/opt/ros/indigo/lib/python2.7/dist-packages/genpy/rostime'
p1759
sg12
g13
(g14
g15
NtRp1760
(dp1761
g18
I1
sg19
I0
sg20
I194
sg21
I0
sg22
I0
sg23
I81
sg24
I0
sbssg25
S'3P\xb9vi[\x89<\x90\xfewO\xc3V\\\xde'
p1762
ssS'_usr_local_lib_python2_7_dist-packages_numpy_random_info'
p1763
(dp1764
g6
(dp1765
g8
S'_usr_local_lib_python2_7_dist-packages_numpy_random_info.html'
p1766
sg10
S'/usr/local/lib/python2.7/dist-packages/numpy/random/info'
p1767
sg12
g13
(g14
g15
NtRp1768
(dp1769
g18
I1
sg19
I0
sg20
I3
sg21
I0
sg22
I0
sg23
I0
sg24
I0
sbssg25
S':$\xabS\x86\xec\x80\x16\xcf\xe2]\x99\x84CP\x96'
p1770
ssS'_opt_ros_indigo_lib_python2_7_dist-packages_std_msgs_msg__Duration'
p1771
(dp1772
g6
(dp1773
g8
S'_opt_ros_indigo_lib_python2_7_dist-packages_std_msgs_msg__Duration.html'
p1774
sg10
S'/opt/ros/indigo/lib/python2.7/dist-packages/std_msgs/msg/_Duration'
p1775
sg12
g13
(g14
g15
NtRp1776
(dp1777
g18
I1
sg19
I0
sg20
I60
sg21
I0
sg22
I0
sg23
I40
sg24
I0
sbssg25
S'\xad=(\xf8\x00\x99\x0c\xe2\r\x0b\xe8\xcf\x8d\x96\x04\xa7'
p1778
ssS'_home_virtubuntu__local_lib_python2_7_site-packages_pyqtgraph_widgets_TableWidget'
p1779
(dp1780
g6
(dp1781
g8
S'_home_virtubuntu__local_lib_python2_7_site-packages_pyqtgraph_widgets_TableWidget.html'
p1782
sg10
S'/home/virtubuntu/.local/lib/python2.7/site-packages/pyqtgraph/widgets/TableWidget'
p1783
sg12
g13
(g14
g15
NtRp1784
(dp1785
g18
I1
sg19
I0
sg20
I199
sg21
I0
sg22
I0
sg23
I165
sg24
I0
sbssg25
S' \nn\xe0A\xeaS\xc1\xbdp\xea\xf7\x93f\xfbn'
p1786
ssS'_opt_ros_indigo_lib_python2_7_dist-packages_std_msgs_msg__UInt32'
p1787
(dp1788
g6
(dp1789
g8
S'_opt_ros_indigo_lib_python2_7_dist-packages_std_msgs_msg__UInt32.html'
p1790
sg10
S'/opt/ros/indigo/lib/python2.7/dist-packages/std_msgs/msg/_UInt32'
p1791
sg12
g13
(g14
g15
NtRp1792
(dp1793
g18
I1
sg19
I0
sg20
I48
sg21
I0
sg22
I0
sg23
I30
sg24
I0
sbssg25
S'\x19\xe1\xe9$\xc0\x1e\xba\xfb\xf7k}4\x85\xa2\xb9\xff'
p1794
ssS'_usr_local_lib_python2_7_dist-packages_numpy_distutils_command_install_clib'
p1795
(dp1796
g6
(dp1797
g8
S'_usr_local_lib_python2_7_dist-packages_numpy_distutils_command_install_clib.html'
p1798
sg10
S'/usr/local/lib/python2.7/dist-packages/numpy/distutils/command/install_clib'
p1799
sg12
g13
(g14
g15
NtRp1800
(dp1801
g18
I1
sg19
I0
sg20
I28
sg21
I0
sg22
I0
sg23
I16
sg24
I0
sbssg25
S'\x00{\x11\x0b\x01\xe6\xec\xfc\xd8\xc0\x8f\t\x81\xdd\xb1\n'
p1802
ssS'_home_virtubuntu__local_lib_python2_7_site-packages_pyqtgraph_exporters_ImageExporter'
p1803
(dp1804
g6
(dp1805
g8
S'_home_virtubuntu__local_lib_python2_7_site-packages_pyqtgraph_exporters_ImageExporter.html'
p1806
sg10
S'/home/virtubuntu/.local/lib/python2.7/site-packages/pyqtgraph/exporters/ImageExporter'
p1807
sg12
g13
(g14
g15
NtRp1808
(dp1809
g18
I1
sg19
I0
sg20
I70
sg21
I0
sg22
I0
sg23
I56
sg24
I0
sbssg25
S'A\xd8\xc4\x12\xe7\xf6\x0c\x99\xf6\xa4\r\xb2\xf0Zp5'
p1810
ssS'_opt_ros_indigo_lib_python2_7_dist-packages_genmsg_msgs'
p1811
(dp1812
g6
(dp1813
g8
S'_opt_ros_indigo_lib_python2_7_dist-packages_genmsg_msgs.html'
p1814
sg10
S'/opt/ros/indigo/lib/python2.7/dist-packages/genmsg/msgs'
p1815
sg12
g13
(g14
g15
NtRp1816
(dp1817
g18
I1
sg19
I0
sg20
I148
sg21
I0
sg22
I0
sg23
I108
sg24
I0
sbssg25
S'C8\x8dRW\xa1\x94\x7f_\x08\x06F\xbc\xd7\xc4;'
p1818
ssS'_opt_ros_indigo_lib_python2_7_dist-packages_roslib_launcher'
p1819
(dp1820
g6
(dp1821
g8
S'_opt_ros_indigo_lib_python2_7_dist-packages_roslib_launcher.html'
p1822
sg10
S'/opt/ros/indigo/lib/python2.7/dist-packages/roslib/launcher'
p1823
sg12
g13
(g14
g15
NtRp1824
(dp1825
g18
I1
sg19
I0
sg20
I45
sg21
I0
sg22
I0
sg23
I35
sg24
I0
sbssg25
S'@\x96\x08)\xd6\x89nU\x10\xbb\xb3\x06K\x08Ue'
p1826
ssS'_home_virtubuntu__local_lib_python2_7_site-packages_pyqtgraph_graphicsItems_LegendItem'
p1827
(dp1828
g6
(dp1829
g8
S'_home_virtubuntu__local_lib_python2_7_site-packages_pyqtgraph_graphicsItems_LegendItem.html'
p1830
sg10
S'/home/virtubuntu/.local/lib/python2.7/site-packages/pyqtgraph/graphicsItems/LegendItem'
p1831
sg12
g13
(g14
g15
NtRp1832
(dp1833
g18
I1
sg19
I0
sg20
I93
sg21
I0
sg22
I0
sg23
I71
sg24
I0
sbssg25
S'*\x04\x99\x83\xf8%%\xac\x8b\x01\x82\xec\x00z\x8a\xb0'
p1834
ssS'_opt_ros_indigo_lib_python2_7_dist-packages_roslib___init__'
p1835
(dp1836
g6
(dp1837
g8
S'_opt_ros_indigo_lib_python2_7_dist-packages_roslib___init__.html'
p1838
sg10
S'/opt/ros/indigo/lib/python2.7/dist-packages/roslib/__init__'
p1839
sg12
g13
(g14
g15
NtRp1840
(dp1841
g18
I1
sg19
I0
sg20
I9
sg21
I0
sg22
I0
sg23
I2
sg24
I0
sbssg25
S'\xb7n\xfdy\x15D`\xa4\x19\xb9L\x03\xff\x10\x85g'
p1842
ssS'_home_virtubuntu__local_lib_python2_7_site-packages_pyqtgraph_exporters_SVGExporter'
p1843
(dp1844
g6
(dp1845
g8
S'_home_virtubuntu__local_lib_python2_7_site-packages_pyqtgraph_exporters_SVGExporter.html'
p1846
sg10
S'/home/virtubuntu/.local/lib/python2.7/site-packages/pyqtgraph/exporters/SVGExporter'
p1847
sg12
g13
(g14
g15
NtRp1848
(dp1849
g18
I1
sg19
I0
sg20
I251
sg21
I0
sg22
I0
sg23
I228
sg24
I0
sbssg25
S'\x99)\xd2\xfe}\xc8\x9f\xb8\xb3$Uf\x90\xfd\xd4\x00'
p1850
ssS'_home_virtubuntu__local_lib_python2_7_site-packages_pyqtgraph_ptime'
p1851
(dp1852
g6
(dp1853
g8
S'_home_virtubuntu__local_lib_python2_7_site-packages_pyqtgraph_ptime.html'
p1854
sg10
S'/home/virtubuntu/.local/lib/python2.7/site-packages/pyqtgraph/ptime'
p1855
sg12
g13
(g14
g15
NtRp1856
(dp1857
g18
I1
sg19
I0
sg20
I14
sg21
I0
sg22
I0
sg23
I5
sg24
I0
sbssg25
S'\xdd\x8e\xc4\xaa"\xcd}\x9c;\xb4H\x94\xd7n\x86y'
p1858
ssS'_usr_share_pyshared_rospkg_common'
p1859
(dp1860
g6
(dp1861
g8
S'_usr_share_pyshared_rospkg_common.html'
p1862
sg10
S'/usr/share/pyshared/rospkg/common'
p1863
sg12
g13
(g14
g15
NtRp1864
(dp1865
g18
I1
sg19
I0
sg20
I15
sg21
I0
sg22
I0
sg23
I7
sg24
I0
sbssg25
S'\xf7)9\x15=Q\x9c\xd8K8f\xb3\xad\x88\xd3\xa6'
p1866
ssS'_home_virtubuntu_catkin_ws_src_arni_arni_gui_src_arni_gui_log_filter_proxy'
p1867
(dp1868
g6
(dp1869
g8
S'_home_virtubuntu_catkin_ws_src_arni_arni_gui_src_arni_gui_log_filter_proxy.html'
p1870
sg10
S'/home/virtubuntu/catkin_ws/src/arni/arni_gui/src/arni_gui/log_filter_proxy'
p1871
sg12
g13
(g14
g15
NtRp1872
(dp1873
g18
I1
sg19
I0
sg20
I26
sg21
I0
sg22
I0
sg23
I1
sg24
I0
sbssg25
S'H\xe5\xaf\xd0\x8e\xad1I\x81\xd3\xe1l\xf6\x8b\xa4\x01'
p1874
ssS'_opt_ros_indigo_lib_python2_7_dist-packages_std_msgs_msg__Int32MultiArray'
p1875
(dp1876
g6
(dp1877
g8
S'_opt_ros_indigo_lib_python2_7_dist-packages_std_msgs_msg__Int32MultiArray.html'
p1878
sg10
S'/opt/ros/indigo/lib/python2.7/dist-packages/std_msgs/msg/_Int32MultiArray'
p1879
sg12
g13
(g14
g15
NtRp1880
(dp1881
g18
I1
sg19
I0
sg20
I143
sg21
I0
sg22
I0
sg23
I123
sg24
I0
sbssg25
S'\x8d\x9a\x15po\xfe\xbd\x1b7\xf1YD\xa5\x99[\xaa'
p1882
ssS'_home_virtubuntu__local_lib_python2_7_site-packages_pyqtgraph_graphicsItems_ViewBox_axisCtrlTemplate_pyqt'
p1883
(dp1884
g6
(dp1885
g8
S'_home_virtubuntu__local_lib_python2_7_site-packages_pyqtgraph_graphicsItems_ViewBox_axisCtrlTemplate_pyqt.html'
p1886
sg10
S'/home/virtubuntu/.local/lib/python2.7/site-packages/pyqtgraph/graphicsItems/ViewBox/axisCtrlTemplate_pyqt'
p1887
sg12
g13
(g14
g15
NtRp1888
(dp1889
g18
I1
sg19
I0
sg20
I79
sg21
I0
sg22
I0
sg23
I0
sg24
I0
sbssg25
S'\x8fy[y\x9b\xd0\xc1\xaa\xdffQ\xf8\xf6\xc4 \xa2'
p1890
ssS'_usr_local_lib_python2_7_dist-packages_numpy_lib_polynomial'
p1891
(dp1892
g6
(dp1893
g8
S'_usr_local_lib_python2_7_dist-packages_numpy_lib_polynomial.html'
p1894
sg10
S'/usr/local/lib/python2.7/dist-packages/numpy/lib/polynomial'
p1895
sg12
g13
(g14
g15
NtRp1896
(dp1897
g18
I1
sg19
I0
sg20
I386
sg21
I0
sg22
I0
sg23
I328
sg24
I0
sbssg25
S"\xdeOM\x80\x85\xd4\xcc\xfb\xd7l'j\xf2!\xc5="
p1898
ssS'_opt_ros_indigo_lib_python2_7_dist-packages_genmsg_base'
p1899
(dp1900
g6
(dp1901
g8
S'_opt_ros_indigo_lib_python2_7_dist-packages_genmsg_base.html'
p1902
sg10
S'/opt/ros/indigo/lib/python2.7/dist-packages/genmsg/base'
p1903
sg12
g13
(g14
g15
NtRp1904
(dp1905
g18
I1
sg19
I0
sg20
I27
sg21
I0
sg22
I0
sg23
I8
sg24
I0
sbssg25
S'\x88\x94L\x94\xcd\x182\x85\x94\xea)\xa6\xbf\xdc\xc8e'
p1906
ssS'_usr_local_lib_python2_7_dist-packages_numpy_distutils_npy_pkg_config'
p1907
(dp1908
g6
(dp1909
g8
S'_usr_local_lib_python2_7_dist-packages_numpy_distutils_npy_pkg_config.html'
p1910
sg10
S'/usr/local/lib/python2.7/dist-packages/numpy/distutils/npy_pkg_config'
p1911
sg12
g13
(g14
g15
NtRp1912
(dp1913
g18
I1
sg19
I0
sg20
I224
sg21
I0
sg22
I0
sg23
I184
sg24
I0
sbssg25
S':\x17\x1b\xc2I\x10\x16\xddHL\xfa6#\x9c\xeb\x91'
p1914
ssS'_opt_ros_indigo_lib_python2_7_dist-packages_qt_gui_icon_loader'
p1915
(dp1916
g6
(dp1917
g8
S'_opt_ros_indigo_lib_python2_7_dist-packages_qt_gui_icon_loader.html'
p1918
sg10
S'/opt/ros/indigo/lib/python2.7/dist-packages/qt_gui/icon_loader'
p1919
sg12
g13
(g14
g15
NtRp1920
(dp1921
g18
I1
sg19
I0
sg20
I18
sg21
I0
sg22
I0
sg23
I10
sg24
I0
sbssg25
S'qh\x8e\xbeR\xbeC\xf3JN\xd6\xf4\xd8\xc2t\xf7'
p1922
ssS'_home_virtubuntu__local_lib_python2_7_site-packages_pyqtgraph_exporters___init__'
p1923
(dp1924
g6
(dp1925
g8
S'_home_virtubuntu__local_lib_python2_7_site-packages_pyqtgraph_exporters___init__.html'
p1926
sg10
S'/home/virtubuntu/.local/lib/python2.7/site-packages/pyqtgraph/exporters/__init__'
p1927
sg12
g13
(g14
g15
NtRp1928
(dp1929
g18
I1
sg19
I0
sg20
I13
sg21
I0
sg22
I0
sg23
I2
sg24
I0
sbssg25
S'V\xbd\xc8&\x81A\xab=\x89\xcam\x05\xe3\xcd\xc2\x93'
p1930
ssS'_usr_local_lib_python2_7_dist-packages_numpy_testing_nosetester'
p1931
(dp1932
g6
(dp1933
g8
S'_usr_local_lib_python2_7_dist-packages_numpy_testing_nosetester.html'
p1934
sg10
S'/usr/local/lib/python2.7/dist-packages/numpy/testing/nosetester'
p1935
sg12
g13
(g14
g15
NtRp1936
(dp1937
g18
I1
sg19
I0
sg20
I154
sg21
I0
sg22
I0
sg23
I125
sg24
I0
sbssg25
S'ws\xa2\xbfF\xf8?\x08\xb5\xa3\xd4\x14\x1f\x1e*V'
p1938
ssS'_opt_ros_indigo_lib_python2_7_dist-packages_genmsg_srvs'
p1939
(dp1940
g6
(dp1941
g8
S'_opt_ros_indigo_lib_python2_7_dist-packages_genmsg_srvs.html'
p1942
sg10
S'/opt/ros/indigo/lib/python2.7/dist-packages/genmsg/srvs'
p1943
sg12
g13
(g14
g15
NtRp1944
(dp1945
g18
I1
sg19
I0
sg20
I27
sg21
I0
sg22
I0
sg23
I18
sg24
I0
sbssg25
S'\x8c>\xe3\xed\xc3\x96\xb1V\x0f3\xae\x00\xdb\xafU\xef'
p1946
ssS'_opt_ros_indigo_lib_python2_7_dist-packages_qt_gui_ros_package_helper'
p1947
(dp1948
g6
(dp1949
g8
S'_opt_ros_indigo_lib_python2_7_dist-packages_qt_gui_ros_package_helper.html'
p1950
sg10
S'/opt/ros/indigo/lib/python2.7/dist-packages/qt_gui/ros_package_helper'
p1951
sg12
g13
(g14
g15
NtRp1952
(dp1953
g18
I1
sg19
I0
sg20
I4
sg21
I0
sg22
I0
sg23
I3
sg24
I0
sbssg25
S'1\x99\xa6\xf9\xf2\xe6\xf5\xbbC\xee^\x10\x16\xffP\x0b'
p1954
ssS'_usr_local_lib_python2_7_dist-packages_numpy_lib_arrayterator'
p1955
(dp1956
g6
(dp1957
g8
S'_usr_local_lib_python2_7_dist-packages_numpy_lib_arrayterator.html'
p1958
sg10
S'/usr/local/lib/python2.7/dist-packages/numpy/lib/arrayterator'
p1959
sg12
g13
(g14
g15
NtRp1960
(dp1961
g18
I1
sg19
I0
sg20
I72
sg21
I0
sg22
I0
sg23
I58
sg24
I0
sbssg25
S'\xc5\x15Y\xe7\xf0i\xd6Y}\xe1#\xf8\x9bu\x05X'
p1962
ssS'_usr_local_lib_python2_7_dist-packages_numpy_distutils_command_build_scripts'
p1963
(dp1964
g6
(dp1965
g8
S'_usr_local_lib_python2_7_dist-packages_numpy_distutils_command_build_scripts.html'
p1966
sg10
S'/usr/local/lib/python2.7/dist-packages/numpy/distutils/command/build_scripts'
p1967
sg12
g13
(g14
g15
NtRp1968
(dp1969
g18
I1
sg19
I0
sg20
I35
sg21
I0
sg22
I0
sg23
I27
sg24
I0
sbssg25
S'\xb2\xab\xd3\xe0\xae)\x04{K\x9cN\xa9Q\xff\xc7p'
p1970
ssS'_usr_local_lib_python2_7_dist-packages_numpy_core_info'
p1971
(dp1972
g6
(dp1973
g8
S'_usr_local_lib_python2_7_dist-packages_numpy_core_info.html'
p1974
sg10
S'/usr/local/lib/python2.7/dist-packages/numpy/core/info'
p1975
sg12
g13
(g14
g15
NtRp1976
(dp1977
g18
I1
sg19
I0
sg20
I3
sg21
I0
sg22
I0
sg23
I0
sg24
I0
sbssg25
S'\x85\xb6\xda\x18M\xdd\xfd\x8a\xaeG7-.\xa5\xab0'
p1978
ssS'_opt_ros_indigo_lib_python2_7_dist-packages_python_qt_binding_binding_helper'
p1979
(dp1980
g6
(dp1981
g8
S'_opt_ros_indigo_lib_python2_7_dist-packages_python_qt_binding_binding_helper.html'
p1982
sg10
S'/opt/ros/indigo/lib/python2.7/dist-packages/python_qt_binding/binding_helper'
p1983
sg12
g13
(g14
g15
NtRp1984
(dp1985
g18
I1
sg19
I0
sg20
I120
sg21
I0
sg22
I0
sg23
I50
sg24
I0
sbssg25
S'+F\xc0\xbc0\xfc\x95\x10\xa3\xf7jw\x03\xae\x9dT'
p1986
ssS'_opt_ros_indigo_lib_python2_7_dist-packages_qt_gui_container_manager'
p1987
(dp1988
g6
(dp1989
g8
S'_opt_ros_indigo_lib_python2_7_dist-packages_qt_gui_container_manager.html'
p1990
sg10
S'/opt/ros/indigo/lib/python2.7/dist-packages/qt_gui/container_manager'
p1991
sg12
g13
(g14
g15
NtRp1992
(dp1993
g18
I1
sg19
I0
sg20
I56
sg21
I0
sg22
I0
sg23
I31
sg24
I0
sbssg25
S'\x8d\nSH\xb0\xf2z\x1e\x1d\xe0\x9c\x9c\xed\x96OW'
p1994
ssS'_home_virtubuntu_catkin_ws_devel_lib_python2_7_dist-packages_arni_msgs_msg__RatedStatisticsEntity'
p1995
(dp1996
g6
(dp1997
g8
S'_home_virtubuntu_catkin_ws_devel_lib_python2_7_dist-packages_arni_msgs_msg__RatedStatisticsEntity.html'
p1998
sg10
S'/home/virtubuntu/catkin_ws/devel/lib/python2.7/dist-packages/arni_msgs/msg/_RatedStatisticsEntity'
p1999
sg12
g13
(g14
g15
NtRp2000
(dp2001
g18
I1
sg19
I0
sg20
I203
sg21
I0
sg22
I0
sg23
I176
sg24
I0
sbssg25
S'\xea0\xbe\x10\t\xe4)R\n\x99\xccb\x84L9\xc1'
p2002
ssS'_home_virtubuntu__local_lib_python2_7_site-packages_pyqtgraph_widgets_ColorButton'
p2003
(dp2004
g6
(dp2005
g8
S'_home_virtubuntu__local_lib_python2_7_site-packages_pyqtgraph_widgets_ColorButton.html'
p2006
sg10
S'/home/virtubuntu/.local/lib/python2.7/site-packages/pyqtgraph/widgets/ColorButton'
p2007
sg12
g13
(g14
g15
NtRp2008
(dp2009
g18
I1
sg19
I0
sg20
I60
sg21
I0
sg22
I0
sg23
I43
sg24
I0
sbssg25
S'\xbe\xc0E\x05>8\xed\x08H\xd1\xe0Dl\xfd\xf4]'
p2010
ssS'_usr_local_lib_python2_7_dist-packages_numpy_core__internal'
p2011
(dp2012
g6
(dp2013
g8
S'_usr_local_lib_python2_7_dist-packages_numpy_core__internal.html'
p2014
sg10
S'/usr/local/lib/python2.7/dist-packages/numpy/core/_internal'
p2015
sg12
g13
(g14
g15
NtRp2016
(dp2017
g18
I1
sg19
I0
sg20
I350
sg21
I0
sg22
I0
sg23
I288
sg24
I0
sbssg25
S';0\x0f\xd5\xe7\x1a\xb6\x8b\x91\x87\xaf|\xa3S\x0b\xa1'
p2018
ssS'_usr_local_lib_python2_7_dist-packages_numpy_lib_index_tricks'
p2019
(dp2020
g6
(dp2021
g8
S'_usr_local_lib_python2_7_dist-packages_numpy_lib_index_tricks.html'
p2022
sg10
S'/usr/local/lib/python2.7/dist-packages/numpy/lib/index_tricks'
p2023
sg12
g13
(g14
g15
NtRp2024
(dp2025
g18
I1
sg19
I0
sg20
I250
sg21
I0
sg22
I0
sg23
I185
sg24
I0
sbssg25
S'\n2\x7fe\xe13\t\x05u\x86\xca\x18\xea\x12\xa4\\'
p2026
ssS'_home_virtubuntu__local_lib_python2_7_site-packages_pyqtgraph_exporters_Exporter'
p2027
(dp2028
g6
(dp2029
g8
S'_home_virtubuntu__local_lib_python2_7_site-packages_pyqtgraph_exporters_Exporter.html'
p2030
sg10
S'/home/virtubuntu/.local/lib/python2.7/site-packages/pyqtgraph/exporters/Exporter'
p2031
sg12
g13
(g14
g15
NtRp2032
(dp2033
g18
I1
sg19
I0
sg20
I82
sg21
I0
sg22
I0
sg23
I63
sg24
I0
sbssg25
S'\xa2\x1f\xd7\xdc\xd7\xf4{6\xb1\x8b|0Rg\x87~'
p2034
ssS'_opt_ros_indigo_lib_python2_7_dist-packages_rqt_gui___init__'
p2035
(dp2036
g6
(dp2037
g8
S'_opt_ros_indigo_lib_python2_7_dist-packages_rqt_gui___init__.html'
p2038
sg10
S'/opt/ros/indigo/lib/python2.7/dist-packages/rqt_gui/__init__'
p2039
sg12
g13
(g14
g15
NtRp2040
(dp2041
g18
I1
sg19
I0
sg20
I0
sg21
I0
sg22
I0
sg23
I0
sg24
I0
sbssg25
S'\xca\xf5\x9f\x7f\x88\xdfa\x831|T\x1d\xbc}\xa5v'
p2042
ssS'_opt_ros_indigo_lib_python2_7_dist-packages_roscpp_msg__Logger'
p2043
(dp2044
g6
(dp2045
g8
S'_opt_ros_indigo_lib_python2_7_dist-packages_roscpp_msg__Logger.html'
p2046
sg10
S'/opt/ros/indigo/lib/python2.7/dist-packages/roscpp/msg/_Logger'
p2047
sg12
g13
(g14
g15
NtRp2048
(dp2049
g18
I1
sg19
I0
sg20
I107
sg21
I0
sg22
I0
sg23
I89
sg24
I0
sbssg25
S'\xb6I\x98(\xa3`\xcfb\xe1\xb1~-\x84L\xc6\xe1'
p2050
ssS'_home_virtubuntu_catkin_ws_devel_lib_python2_7_dist-packages_arni_msgs_srv__NodeReaction'
p2051
(dp2052
g6
(dp2053
g8
S'_home_virtubuntu_catkin_ws_devel_lib_python2_7_dist-packages_arni_msgs_srv__NodeReaction.html'
p2054
sg10
S'/home/virtubuntu/catkin_ws/devel/lib/python2.7/dist-packages/arni_msgs/srv/_NodeReaction'
p2055
sg12
g13
(g14
g15
NtRp2056
(dp2057
g18
I1
sg19
I0
sg20
I219
sg21
I0
sg22
I0
sg23
I145
sg24
I0
sbssg25
S'\xff\x1c\x01\xb2^\xf7\x0c\xcd\xe4\xe2\xf33iz\xb6\xd0'
p2058
ssS'_opt_ros_indigo_lib_python2_7_dist-packages_qt_gui_plugin_provider'
p2059
(dp2060
g6
(dp2061
g8
S'_opt_ros_indigo_lib_python2_7_dist-packages_qt_gui_plugin_provider.html'
p2062
sg10
S'/opt/ros/indigo/lib/python2.7/dist-packages/qt_gui/plugin_provider'
p2063
sg12
g13
(g14
g15
NtRp2064
(dp2065
g18
I1
sg19
I0
sg20
I13
sg21
I0
sg22
I0
sg23
I3
sg24
I0
sbssg25
S'g\x0bK\xf1\xf4\x1a}(\xc8\x7f\xe0\x14\xaab\xcd\xca'
p2066
ssS'_usr_local_lib_python2_7_dist-packages_numpy_lib_nanfunctions'
p2067
(dp2068
g6
(dp2069
g8
S'_usr_local_lib_python2_7_dist-packages_numpy_lib_nanfunctions.html'
p2070
sg10
S'/usr/local/lib/python2.7/dist-packages/numpy/lib/nanfunctions'
p2071
sg12
g13
(g14
g15
NtRp2072
(dp2073
g18
I1
sg19
I0
sg20
I138
sg21
I0
sg22
I0
sg23
I115
sg24
I0
sbssg25
S'\x9d\xbdcUI\xbf\xb2\x97\xdca\xff\x90\x8f4\x90\x16'
p2074
ssS'_usr_local_lib_python2_7_dist-packages_numpy_ma_core'
p2075
(dp2076
g6
(dp2077
g8
S'_usr_local_lib_python2_7_dist-packages_numpy_ma_core.html'
p2078
sg10
S'/usr/local/lib/python2.7/dist-packages/numpy/ma/core'
p2079
sg12
g13
(g14
g15
NtRp2080
(dp2081
g18
I1
sg19
I0
sg20
I2324
sg21
I0
sg22
I0
sg23
I1793
sg24
I0
sbssg25
S'\xe4>\r\x16^\xf0{$\xbeJ\x9d\r\xf8\xbeQ7'
p2082
ssS'_opt_ros_indigo_lib_python2_7_dist-packages_rospy_impl_transport'
p2083
(dp2084
g6
(dp2085
g8
S'_opt_ros_indigo_lib_python2_7_dist-packages_rospy_impl_transport.html'
p2086
sg10
S'/opt/ros/indigo/lib/python2.7/dist-packages/rospy/impl/transport'
p2087
sg12
g13
(g14
g15
NtRp2088
(dp2089
g18
I1
sg19
I0
sg20
I62
sg21
I0
sg22
I0
sg23
I18
sg24
I0
sbssg25
S'\xfc\xc5\xf1\x15\x01\xe1\x93\xaa\x9e\xa4\x9f)y\x95\x1ed'
p2090
ssS'_home_virtubuntu__local_lib_python2_7_site-packages_pyqtgraph_widgets_GraphicsLayoutWidget'
p2091
(dp2092
g6
(dp2093
g8
S'_home_virtubuntu__local_lib_python2_7_site-packages_pyqtgraph_widgets_GraphicsLayoutWidget.html'
p2094
sg10
S'/home/virtubuntu/.local/lib/python2.7/site-packages/pyqtgraph/widgets/GraphicsLayoutWidget'
p2095
sg12
g13
(g14
g15
NtRp2096
(dp2097
g18
I1
sg19
I0
sg20
I11
sg21
I0
sg22
I0
sg23
I0
sg24
I0
sbssg25
S"\xe9\x07{\xfc\x8b\xd5\xc8\xd1\x81ze\x86'\xd0\x02\x8a"
p2098
ssS'_usr_local_lib_python2_7_dist-packages_numpy_ma___init__'
p2099
(dp2100
g6
(dp2101
g8
S'_usr_local_lib_python2_7_dist-packages_numpy_ma___init__.html'
p2102
sg10
S'/usr/local/lib/python2.7/dist-packages/numpy/ma/__init__'
p2103
sg12
g13
(g14
g15
NtRp2104
(dp2105
g18
I1
sg19
I0
sg20
I15
sg21
I0
sg22
I0
sg23
I0
sg24
I0
sbssg25
S"R\xdc$PQ\xdc\xea\xa4J\xba\xb1\xb4'\xbenS"
p2106
ssS'_opt_ros_indigo_lib_python2_7_dist-packages_qt_gui_plugin_menu'
p2107
(dp2108
g6
(dp2109
g8
S'_opt_ros_indigo_lib_python2_7_dist-packages_qt_gui_plugin_menu.html'
p2110
sg10
S'/opt/ros/indigo/lib/python2.7/dist-packages/qt_gui/plugin_menu'
p2111
sg12
g13
(g14
g15
NtRp2112
(dp2113
g18
I1
sg19
I0
sg20
I71
sg21
I0
sg22
I0
sg23
I3
sg24
I0
sbssg25
S'\xaf"\xb1+YeBw\x9byN\xba\xeag\x03\x93'
p2114
ssS'_opt_ros_indigo_lib_python2_7_dist-packages_std_msgs_msg__Float32MultiArray'
p2115
(dp2116
g6
(dp2117
g8
S'_opt_ros_indigo_lib_python2_7_dist-packages_std_msgs_msg__Float32MultiArray.html'
p2118
sg10
S'/opt/ros/indigo/lib/python2.7/dist-packages/std_msgs/msg/_Float32MultiArray'
p2119
sg12
g13
(g14
g15
NtRp2120
(dp2121
g18
I1
sg19
I0
sg20
I143
sg21
I0
sg22
I0
sg23
I123
sg24
I0
sbssg25
S'\xb1\xd0\xe8#\x18\xa5\xb7\x03w1\x98\x0c\xfd\x8fk\x94'
p2122
ssS'_home_virtubuntu_catkin_ws_src_arni_rqt_arni_gui_detail_src_rqt_arni_gui_detail_arni_gui_detail'
p2123
(dp2124
g6
(dp2125
g8
S'_home_virtubuntu_catkin_ws_src_arni_rqt_arni_gui_detail_src_rqt_arni_gui_detail_arni_gui_detail.html'
p2126
sg10
S'/home/virtubuntu/catkin_ws/src/arni/rqt_arni_gui_detail/src/rqt_arni_gui_detail/arni_gui_detail'
p2127
sg12
g13
(g14
g15
NtRp2128
(dp2129
g18
I1
sg19
I0
sg20
I75
sg21
I0
sg22
I0
sg23
I0
sg24
I0
sbssg25
S'K\x8b\xe1C?b\x98-\xd1P\x0c\x7f\xfbK\xad8'
p2130
ssS'_usr_local_lib_python2_7_dist-packages_numpy_compat_py3k'
p2131
(dp2132
g6
(dp2133
g8
S'_usr_local_lib_python2_7_dist-packages_numpy_compat_py3k.html'
p2134
sg10
S'/usr/local/lib/python2.7/dist-packages/numpy/compat/py3k'
p2135
sg12
g13
(g14
g15
NtRp2136
(dp2137
g18
I1
sg19
I0
sg20
I57
sg21
I0
sg22
I0
sg23
I38
sg24
I0
sbssg25
S'\xfc\x1a\xc6\x0f\xe3\xfa\x95\xd5ea\x02\xaf\xa7\x10\x17W'
p2138
ssS'_usr_local_lib_python2_7_dist-packages_numpy_random___init__'
p2139
(dp2140
g6
(dp2141
g8
S'_usr_local_lib_python2_7_dist-packages_numpy_random___init__.html'
p2142
sg10
S'/usr/local/lib/python2.7/dist-packages/numpy/random/__init__'
p2143
sg12
g13
(g14
g15
NtRp2144
(dp2145
g18
I1
sg19
I0
sg20
I13
sg21
I0
sg22
I0
sg23
I1
sg24
I0
sbssg25
S'|\x9d\xe3\xdd\x88\x1f>\xa0\xb1\xbd\x82f-\x81\xd4\x88'
p2146
ssS'_opt_ros_indigo_lib_python2_7_dist-packages_std_msgs_msg__Char'
p2147
(dp2148
g6
(dp2149
g8
S'_opt_ros_indigo_lib_python2_7_dist-packages_std_msgs_msg__Char.html'
p2150
sg10
S'/opt/ros/indigo/lib/python2.7/dist-packages/std_msgs/msg/_Char'
p2151
sg12
g13
(g14
g15
NtRp2152
(dp2153
g18
I1
sg19
I0
sg20
I49
sg21
I0
sg22
I0
sg23
I30
sg24
I0
sbssg25
S'\xb30\xf8\xc8F\xa6:S\xad\xe62\xfbgpJ\x92'
p2154
ssS'_home_virtubuntu__local_lib_python2_7_site-packages_pyqtgraph_colormap'
p2155
(dp2156
g6
(dp2157
g8
S'_home_virtubuntu__local_lib_python2_7_site-packages_pyqtgraph_colormap.html'
p2158
sg10
S'/home/virtubuntu/.local/lib/python2.7/site-packages/pyqtgraph/colormap'
p2159
sg12
g13
(g14
g15
NtRp2160
(dp2161
g18
I1
sg19
I0
sg20
I93
sg21
I0
sg22
I0
sg23
I68
sg24
I0
sbssg25
S'\x1dR\xbd\x13_\xc3W/\x1e\xfd\x03(^J@Q'
p2162
ssS'_home_virtubuntu_catkin_ws_src_arni_arni_core_src_arni_core_singleton'
p2163
(dp2164
g6
(dp2165
g8
S'_home_virtubuntu_catkin_ws_src_arni_arni_core_src_arni_core_singleton.html'
p2166
sg10
S'/home/virtubuntu/catkin_ws/src/arni/arni_core/src/arni_core/singleton'
p2167
sg12
g13
(g14
g15
NtRp2168
(dp2169
g18
I1
sg19
I0
sg20
I6
sg21
I0
sg22
I0
sg23
I0
sg24
I0
sbssg25
S'\x87%_`:\xa0\xb6P\x04\xcaKp\x0b\x95n\xb2'
p2170
ssS'_opt_ros_indigo_lib_python2_7_dist-packages_rosgraph_msgs_msg__Log'
p2171
(dp2172
g6
(dp2173
g8
S'_opt_ros_indigo_lib_python2_7_dist-packages_rosgraph_msgs_msg__Log.html'
p2174
sg10
S'/opt/ros/indigo/lib/python2.7/dist-packages/rosgraph_msgs/msg/_Log'
p2175
sg12
g13
(g14
g15
NtRp2176
(dp2177
g18
I1
sg19
I0
sg20
I309
sg21
I0
sg22
I0
sg23
I274
sg24
I0
sbssg25
S'"V\xe8\x8c\x94\xd1`\xa4\x8a\x90Y\x97\xf7\xde\xb8\xde'
p2178
ssS'_home_virtubuntu__local_lib_python2_7_site-packages_pyqtgraph_parametertree_Parameter'
p2179
(dp2180
g6
(dp2181
g8
S'_home_virtubuntu__local_lib_python2_7_site-packages_pyqtgraph_parametertree_Parameter.html'
p2182
sg10
S'/home/virtubuntu/.local/lib/python2.7/site-packages/pyqtgraph/parametertree/Parameter'
p2183
sg12
g13
(g14
g15
NtRp2184
(dp2185
g18
I1
sg19
I0
sg20
I337
sg21
I0
sg22
I0
sg23
I261
sg24
I0
sbssg25
S'\xf3\xd3L+\xa8\xbem\xa3J\x81\x7fp\x7fDD^'
p2186
ssS'_usr_local_lib_python2_7_dist-packages_numpy_distutils_command_sdist'
p2187
(dp2188
g6
(dp2189
g8
S'_usr_local_lib_python2_7_dist-packages_numpy_distutils_command_sdist.html'
p2190
sg10
S'/usr/local/lib/python2.7/dist-packages/numpy/distutils/command/sdist'
p2191
sg12
g13
(g14
g15
NtRp2192
(dp2193
g18
I1
sg19
I0
sg20
I20
sg21
I0
sg22
I0
sg23
I13
sg24
I0
sbssg25
S'\t\xa1\xd8C\x80\xad0~m\x15\xc8\xa1\xd4RS\x1c'
p2194
ssS'_home_virtubuntu__local_lib_python2_7_site-packages_pyqtgraph_graphicsItems_LabelItem'
p2195
(dp2196
g6
(dp2197
g8
S'_home_virtubuntu__local_lib_python2_7_site-packages_pyqtgraph_graphicsItems_LabelItem.html'
p2198
sg10
S'/home/virtubuntu/.local/lib/python2.7/site-packages/pyqtgraph/graphicsItems/LabelItem'
p2199
sg12
g13
(g14
g15
NtRp2200
(dp2201
g18
I1
sg19
I0
sg20
I80
sg21
I0
sg22
I0
sg23
I17
sg24
I0
sbssg25
S'gd\xa9\xe7Dx\xbe/\x8d\x90T\xaaP\xa0X\x8b'
p2202
ssS'_usr_local_lib_python2_7_dist-packages_numpy_lib_twodim_base'
p2203
(dp2204
g6
(dp2205
g8
S'_usr_local_lib_python2_7_dist-packages_numpy_lib_twodim_base.html'
p2206
sg10
S'/usr/local/lib/python2.7/dist-packages/numpy/lib/twodim_base'
p2207
sg12
g13
(g14
g15
NtRp2208
(dp2209
g18
I1
sg19
I0
sg20
I116
sg21
I0
sg22
I0
sg23
I97
sg24
I0
sbssg25
S'\xa5\xbc\x86\xb1\x86\x00\xb2\xc5>7/A\x90\x97E\xf4'
p2210
ssS'_opt_ros_indigo_lib_python2_7_dist-packages_rospy_impl_simtime'
p2211
(dp2212
g6
(dp2213
g8
S'_opt_ros_indigo_lib_python2_7_dist-packages_rospy_impl_simtime.html'
p2214
sg10
S'/opt/ros/indigo/lib/python2.7/dist-packages/rospy/impl/simtime'
p2215
sg12
g13
(g14
g15
NtRp2216
(dp2217
g18
I1
sg19
I0
sg20
I39
sg21
I0
sg22
I0
sg23
I11
sg24
I0
sbssg25
S'c\x9cR\xc5\xb2\xff\xed\xa0T-\xc1\x93\x97G\xe3\x18'
p2218
ssS'_usr_local_lib_python2_7_dist-packages_numpy_polynomial___init__'
p2219
(dp2220
g6
(dp2221
g8
S'_usr_local_lib_python2_7_dist-packages_numpy_polynomial___init__.html'
p2222
sg10
S'/usr/local/lib/python2.7/dist-packages/numpy/polynomial/__init__'
p2223
sg12
g13
(g14
g15
NtRp2224
(dp2225
g18
I1
sg19
I0
sg20
I11
sg21
I0
sg22
I0
sg23
I0
sg24
I0
sbssg25
S'OgG\x1b\x12\xc2+gP"1\xf7\xcdQ\xb8\xa8'
p2226
ssS'_usr_local_lib_python2_7_dist-packages_numpy_oldnumeric_typeconv'
p2227
(dp2228
g6
(dp2229
g8
S'_usr_local_lib_python2_7_dist-packages_numpy_oldnumeric_typeconv.html'
p2230
sg10
S'/usr/local/lib/python2.7/dist-packages/numpy/oldnumeric/typeconv'
p2231
sg12
g13
(g14
g15
NtRp2232
(dp2233
g18
I1
sg19
I0
sg20
I29
sg21
I0
sg22
I0
sg23
I14
sg24
I0
sbssg25
S'||\xa2\xedX]\xb8\x1f\xf9=][\xdfJ\xdbc'
p2234
ssS'_home_virtubuntu_catkin_ws_devel_lib_python2_7_dist-packages_arni_msgs_msg__HostStatistics'
p2235
(dp2236
g6
(dp2237
g8
S'_home_virtubuntu_catkin_ws_devel_lib_python2_7_dist-packages_arni_msgs_msg__HostStatistics.html'
p2238
sg10
S'/home/virtubuntu/catkin_ws/devel/lib/python2.7/dist-packages/arni_msgs/msg/_HostStatistics'
p2239
sg12
g13
(g14
g15
NtRp2240
(dp2241
g18
I1
sg19
I0
sg20
I771
sg21
I0
sg22
I0
sg23
I519
sg24
I0
sbssg25
S'f\xf3\x0c3\xe8\r6\x91;\x82\x1e\xea#>\xf4\xd5'
p2242
ssS'_usr_share_pyshared_rospkg__version'
p2243
(dp2244
g6
(dp2245
g8
S'_usr_share_pyshared_rospkg__version.html'
p2246
sg10
S'/usr/share/pyshared/rospkg/_version'
p2247
sg12
g13
(g14
g15
NtRp2248
(dp2249
g18
I1
sg19
I0
sg20
I1
sg21
I0
sg22
I0
sg23
I0
sg24
I0
sbssg25
S"\xa8\xd8\x1eUD=\x02W\n3'\x85,!\x8d\x01"
p2250
ssS'_home_virtubuntu__local_lib_python2_7_site-packages_pyqtgraph_graphicsItems_GraphicsWidgetAnchor'
p2251
(dp2252
g6
(dp2253
g8
S'_home_virtubuntu__local_lib_python2_7_site-packages_pyqtgraph_graphicsItems_GraphicsWidgetAnchor.html'
p2254
sg10
S'/home/virtubuntu/.local/lib/python2.7/site-packages/pyqtgraph/graphicsItems/GraphicsWidgetAnchor'
p2255
sg12
g13
(g14
g15
NtRp2256
(dp2257
g18
I1
sg19
I0
sg20
I61
sg21
I0
sg22
I0
sg23
I46
sg24
I0
sbssg25
S'\xa9\x16u\xc2\x9eM\x9cM\xd7\xb2\xa1\x06\xf7@)\xe3'
p2258
ssS'_usr_local_lib_python2_7_dist-packages_numpy_distutils_extension'
p2259
(dp2260
g6
(dp2261
g8
S'_usr_local_lib_python2_7_dist-packages_numpy_distutils_extension.html'
p2262
sg10
S'/usr/local/lib/python2.7/dist-packages/numpy/distutils/extension'
p2263
sg12
g13
(g14
g15
NtRp2264
(dp2265
g18
I1
sg19
I0
sg20
I35
sg21
I0
sg22
I0
sg23
I24
sg24
I0
sbssg25
S'k\xb6\xdb\xf0\xcffa5\xb2K\x91\x1b\x11\xd2\xd4\x95'
p2266
ssS'_usr_local_lib_python2_7_dist-packages_numpy_distutils_core'
p2267
(dp2268
g6
(dp2269
g8
S'_usr_local_lib_python2_7_dist-packages_numpy_distutils_core.html'
p2270
sg10
S'/usr/local/lib/python2.7/dist-packages/numpy/distutils/core'
p2271
sg12
g13
(g14
g15
NtRp2272
(dp2273
g18
I1
sg19
I0
sg20
I137
sg21
I0
sg22
I0
sg23
I116
sg24
I0
sbssg25
S'3\xaa3\x91\x9d\xb3\x81\x08\x90}q#`\xc7\x84\xb4'
p2274
ssS'_opt_ros_indigo_lib_python2_7_dist-packages_roslib_stack_manifest'
p2275
(dp2276
g6
(dp2277
g8
S'_opt_ros_indigo_lib_python2_7_dist-packages_roslib_stack_manifest.html'
p2278
sg10
S'/opt/ros/indigo/lib/python2.7/dist-packages/roslib/stack_manifest'
p2279
sg12
g13
(g14
g15
NtRp2280
(dp2281
g18
I1
sg19
I0
sg20
I30
sg21
I0
sg22
I0
sg23
I16
sg24
I0
sbssg25
S'\x9a\x0f\xa3J\x05}^rZ\x05Z\xb5\xeb\xe1\x97t'
p2282
ssS'_home_virtubuntu__local_lib_python2_7_site-packages_pyqtgraph_exporters_PrintExporter'
p2283
(dp2284
g6
(dp2285
g8
S'_home_virtubuntu__local_lib_python2_7_site-packages_pyqtgraph_exporters_PrintExporter.html'
p2286
sg10
S'/home/virtubuntu/.local/lib/python2.7/site-packages/pyqtgraph/exporters/PrintExporter'
p2287
sg12
g13
(g14
g15
NtRp2288
(dp2289
g18
I1
sg19
I0
sg20
I46
sg21
I0
sg22
I0
sg23
I34
sg24
I0
sbssg25
S'mb\xb9Y\xda6\x1b\xff\xc8|\tP\xab\x89\xb9\x05'
p2290
ssS'_usr_local_lib_python2_7_dist-packages_numpy_core_defchararray'
p2291
(dp2292
g6
(dp2293
g8
S'_usr_local_lib_python2_7_dist-packages_numpy_core_defchararray.html'
p2294
sg10
S'/usr/local/lib/python2.7/dist-packages/numpy/core/defchararray'
p2295
sg12
g13
(g14
g15
NtRp2296
(dp2297
g18
I1
sg19
I0
sg20
I364
sg21
I0
sg22
I0
sg23
I238
sg24
I0
sbssg25
S'Cm?\xf0Y\xa1\x90\x8c $1\xb9\xd7\x00\xd1{'
p2298
ssS'_home_virtubuntu__local_lib_python2_7_site-packages_pyqtgraph_widgets_MultiPlotWidget'
p2299
(dp2300
g6
(dp2301
g8
S'_home_virtubuntu__local_lib_python2_7_site-packages_pyqtgraph_widgets_MultiPlotWidget.html'
p2302
sg10
S'/home/virtubuntu/.local/lib/python2.7/site-packages/pyqtgraph/widgets/MultiPlotWidget'
p2303
sg12
g13
(g14
g15
NtRp2304
(dp2305
g18
I1
sg19
I0
sg20
I27
sg21
I0
sg22
I0
sg23
I16
sg24
I0
sbssg25
S"\xc32\x8f'\x17\xe7^\x10\xe3\x0f\x7fV\x1c9\x02\xd6"
p2306
ssS'_usr_local_lib_python2_7_dist-packages_numpy_core_memmap'
p2307
(dp2308
g6
(dp2309
g8
S'_usr_local_lib_python2_7_dist-packages_numpy_core_memmap.html'
p2310
sg10
S'/usr/local/lib/python2.7/dist-packages/numpy/core/memmap'
p2311
sg12
g13
(g14
g15
NtRp2312
(dp2313
g18
I1
sg19
I0
sg20
I83
sg21
I0
sg22
I0
sg23
I67
sg24
I0
sbssg25
S'\x99uY\xc7L\xab\x9f\xc4e\xa5\xd0\xa1\xf7\xbd\xf8T'
p2314
ssS'_opt_ros_indigo_lib_python2_7_dist-packages_rosgraph_names'
p2315
(dp2316
g6
(dp2317
g8
S'_opt_ros_indigo_lib_python2_7_dist-packages_rosgraph_names.html'
p2318
sg10
S'/opt/ros/indigo/lib/python2.7/dist-packages/rosgraph/names'
p2319
sg12
g13
(g14
g15
NtRp2320
(dp2321
g18
I1
sg19
I0
sg20
I119
sg21
I0
sg22
I0
sg23
I42
sg24
I0
sbssg25
S' \x16\x0b\xd7\xd9Y\xb7;6*\xb2\xde\x0c\x85\xebK'
p2322
ssS'_home_virtubuntu__local_lib_python2_7_site-packages_pyqtgraph___init__'
p2323
(dp2324
g6
(dp2325
g8
S'_home_virtubuntu__local_lib_python2_7_site-packages_pyqtgraph___init__.html'
p2326
sg10
S'/home/virtubuntu/.local/lib/python2.7/site-packages/pyqtgraph/__init__'
p2327
sg12
g13
(g14
g15
NtRp2328
(dp2329
g18
I1
sg19
I0
sg20
I175
sg21
I0
sg22
I0
sg23
I98
sg24
I0
sbssg25
S'F)\xd8\x1e 4\x9c\xacY\xba\xe14\x1b~\xc5`'
p2330
ssS'_opt_ros_indigo_lib_python2_7_dist-packages_rosgraph_network'
p2331
(dp2332
g6
(dp2333
g8
S'_opt_ros_indigo_lib_python2_7_dist-packages_rosgraph_network.html'
p2334
sg10
S'/opt/ros/indigo/lib/python2.7/dist-packages/rosgraph/network'
p2335
sg12
g13
(g14
g15
NtRp2336
(dp2337
g18
I1
sg19
I0
sg20
I214
sg21
I0
sg22
I0
sg23
I108
sg24
I0
sbssg25
S'X\xe6\x04R\xf1_g\xfbx\xd6\x08}\xd3\x83\xb4\xc9'
p2338
ssS'_opt_ros_indigo_lib_python2_7_dist-packages_qt_gui_application_dbus_interface'
p2339
(dp2340
g6
(dp2341
g8
S'_opt_ros_indigo_lib_python2_7_dist-packages_qt_gui_application_dbus_interface.html'
p2342
sg10
S'/opt/ros/indigo/lib/python2.7/dist-packages/qt_gui/application_dbus_interface'
p2343
sg12
g13
(g14
g15
NtRp2344
(dp2345
g18
I1
sg19
I0
sg20
I9
sg21
I0
sg22
I0
sg23
I1
sg24
I0
sbssg25
S"L\xb8\xcb\x14N\x9bZ\x8bY)'\xfb\x93;Zo"
p2346
ssS'_home_virtubuntu__local_lib_python2_7_site-packages_pyqtgraph_pixmaps___init__'
p2347
(dp2348
g6
(dp2349
g8
S'_home_virtubuntu__local_lib_python2_7_site-packages_pyqtgraph_pixmaps___init__.html'
p2350
sg10
S'/home/virtubuntu/.local/lib/python2.7/site-packages/pyqtgraph/pixmaps/__init__'
p2351
sg12
g13
(g14
g15
NtRp2352
(dp2353
g18
I1
sg19
I0
sg20
I13
sg21
I0
sg22
I0
sg23
I1
sg24
I0
sbssg25
S'\xeah!5Y\x8deR\xaa\xf0X\xbc\xb8\xe7\xb9\x88'
p2354
ssS'_usr_share_pyshared_catkin_pkg___init__'
p2355
(dp2356
g6
(dp2357
g8
S'_usr_share_pyshared_catkin_pkg___init__.html'
p2358
sg10
S'/usr/share/pyshared/catkin_pkg/__init__'
p2359
sg12
g13
(g14
g15
NtRp2360
(dp2361
g18
I1
sg19
I0
sg20
I2
sg21
I0
sg22
I0
sg23
I0
sg24
I0
sbssg25
S'\xcf)\xed\xd0 \xd8\xce\xda=&cv?\xc2\x132'
p2362
ssS'_home_virtubuntu__local_lib_python2_7_site-packages_pyqtgraph_widgets_ComboBox'
p2363
(dp2364
g6
(dp2365
g8
S'_home_virtubuntu__local_lib_python2_7_site-packages_pyqtgraph_widgets_ComboBox.html'
p2366
sg10
S'/home/virtubuntu/.local/lib/python2.7/site-packages/pyqtgraph/widgets/ComboBox'
p2367
sg12
g13
(g14
g15
NtRp2368
(dp2369
g18
I1
sg19
I0
sg20
I24
sg21
I0
sg22
I0
sg23
I18
sg24
I0
sbssg25
S'\xfeG\x9d:H\xa5\x8c\x98\x99[\x88\xf2\xb1\r\x81\xbc'
p2370
ssS'_usr_local_lib_python2_7_dist-packages_numpy_linalg___init__'
p2371
(dp2372
g6
(dp2373
g8
S'_usr_local_lib_python2_7_dist-packages_numpy_linalg___init__.html'
p2374
sg10
S'/usr/local/lib/python2.7/dist-packages/numpy/linalg/__init__'
p2375
sg12
g13
(g14
g15
NtRp2376
(dp2377
g18
I1
sg19
I0
sg20
I6
sg21
I0
sg22
I0
sg23
I0
sg24
I0
sbssg25
S'\xd9\r{X\x17\x0c%f\xb2\xee\xf9`\x19\xe2-O'
p2378
ssS'_opt_ros_indigo_lib_python2_7_dist-packages_qt_gui_plugin_instance_id'
p2379
(dp2380
g6
(dp2381
g8
S'_opt_ros_indigo_lib_python2_7_dist-packages_qt_gui_plugin_instance_id.html'
p2382
sg10
S'/opt/ros/indigo/lib/python2.7/dist-packages/qt_gui/plugin_instance_id'
p2383
sg12
g13
(g14
g15
NtRp2384
(dp2385
g18
I1
sg19
I0
sg20
I15
sg21
I0
sg22
I0
sg23
I0
sg24
I0
sbssg25
S'd\xe0P\xb7K\xd8\x80\xcb>u\xd0\xb8\xd0\xef \xa3'
p2386
ssS'_home_virtubuntu_catkin_ws_src_arni_arni_gui_src_arni_gui_item_filter_proxy'
p2387
(dp2388
g6
(dp2389
g8
S'_home_virtubuntu_catkin_ws_src_arni_arni_gui_src_arni_gui_item_filter_proxy.html'
p2390
sg10
S'/home/virtubuntu/catkin_ws/src/arni/arni_gui/src/arni_gui/item_filter_proxy'
p2391
sg12
g13
(g14
g15
NtRp2392
(dp2393
g18
I1
sg19
I0
sg20
I99
sg21
I0
sg22
I0
sg23
I5
sg24
I0
sbssg25
S'\xd0\xc4\ng!D\xe8\x8ek\x89\xc5\x06nx\x9cn'
p2394
ssS'_home_virtubuntu__local_lib_python2_7_site-packages_pyqtgraph_widgets_DataTreeWidget'
p2395
(dp2396
g6
(dp2397
g8
S'_home_virtubuntu__local_lib_python2_7_site-packages_pyqtgraph_widgets_DataTreeWidget.html'
p2398
sg10
S'/home/virtubuntu/.local/lib/python2.7/site-packages/pyqtgraph/widgets/DataTreeWidget'
p2399
sg12
g13
(g14
g15
NtRp2400
(dp2401
g18
I1
sg19
I0
sg20
I41
sg21
I0
sg22
I0
sg23
I28
sg24
I0
sbssg25
S'\xf9\xc1\\\xcdC\xac\x944a\xc6\xf2_W\xb6\x9a\x0f'
p2402
ssS'_home_virtubuntu__local_lib_python2_7_site-packages_pyqtgraph_graphicsWindows'
p2403
(dp2404
g6
(dp2405
g8
S'_home_virtubuntu__local_lib_python2_7_site-packages_pyqtgraph_graphicsWindows.html'
p2406
sg10
S'/home/virtubuntu/.local/lib/python2.7/site-packages/pyqtgraph/graphicsWindows'
p2407
sg12
g13
(g14
g15
NtRp2408
(dp2409
g18
I1
sg19
I0
sg20
I58
sg21
I0
sg22
I0
sg23
I41
sg24
I0
sbssg25
S'bM\x1d\xa7\xbe\x07\x1a\xa0\xe3\x9a4\xd0U\x05b('
p2410
ssS'_opt_ros_indigo_lib_python2_7_dist-packages_rospy_impl_tcpros_pubsub'
p2411
(dp2412
g6
(dp2413
g8
S'_opt_ros_indigo_lib_python2_7_dist-packages_rospy_impl_tcpros_pubsub.html'
p2414
sg10
S'/opt/ros/indigo/lib/python2.7/dist-packages/rospy/impl/tcpros_pubsub'
p2415
sg12
g13
(g14
g15
NtRp2416
(dp2417
g18
I1
sg19
I0
sg20
I167
sg21
I0
sg22
I0
sg23
I39
sg24
I0
sbssg25
S'\xa0;\x86\xe2(\xfb{Y:7\xfbr\x9e\xb5_\x9f'
p2418
ssS'_opt_ros_indigo_lib_python2_7_dist-packages_qt_gui_composite_plugin_provider'
p2419
(dp2420
g6
(dp2421
g8
S'_opt_ros_indigo_lib_python2_7_dist-packages_qt_gui_composite_plugin_provider.html'
p2422
sg10
S'/opt/ros/indigo/lib/python2.7/dist-packages/qt_gui/composite_plugin_provider'
p2423
sg12
g13
(g14
g15
NtRp2424
(dp2425
g18
I1
sg19
I0
sg20
I39
sg21
I0
sg22
I0
sg23
I4
sg24
I0
sbssg25
S'\xcfv\xee\x9a\xc8\xef\xafk\x91z\xed\x1e\x96\xec@\xbc'
p2426
ssS'_home_virtubuntu__local_lib_python2_7_site-packages_pyqtgraph_widgets_ColorMapWidget'
p2427
(dp2428
g6
(dp2429
g8
S'_home_virtubuntu__local_lib_python2_7_site-packages_pyqtgraph_widgets_ColorMapWidget.html'
p2430
sg10
S'/home/virtubuntu/.local/lib/python2.7/site-packages/pyqtgraph/widgets/ColorMapWidget'
p2431
sg12
g13
(g14
g15
NtRp2432
(dp2433
g18
I1
sg19
I0
sg20
I101
sg21
I0
sg22
I0
sg23
I77
sg24
I0
sbssg25
S'S\xd5\x1cA\xc9\xeaU\xe2W_\xa4\xee\xcf\x8a\x93:'
p2434
ssS'_usr_local_lib_python2_7_dist-packages_numpy_distutils_from_template'
p2435
(dp2436
g6
(dp2437
g8
S'_usr_local_lib_python2_7_dist-packages_numpy_distutils_from_template.html'
p2438
sg10
S'/usr/local/lib/python2.7/dist-packages/numpy/distutils/from_template'
p2439
sg12
g13
(g14
g15
NtRp2440
(dp2441
g18
I1
sg19
I0
sg20
I160
sg21
I0
sg22
I0
sg23
I119
sg24
I0
sbssg25
S'\xaaS\xda\x80\xcc\x9d i\x03\x86\xa9\xd6\xf3f\xc7='
p2442
ssS'_usr_local_lib_python2_7_dist-packages_numpy_fft_info'
p2443
(dp2444
g6
(dp2445
g8
S'_usr_local_lib_python2_7_dist-packages_numpy_fft_info.html'
p2446
sg10
S'/usr/local/lib/python2.7/dist-packages/numpy/fft/info'
p2447
sg12
g13
(g14
g15
NtRp2448
(dp2449
g18
I1
sg19
I0
sg20
I2
sg21
I0
sg22
I0
sg23
I0
sg24
I0
sbssg25
S't\xdbU~X-=\xe7\x07\xe6:f\xa0\xfe/\xe7'
p2450
ssS'_home_virtubuntu_catkin_ws_devel_lib_python2_7_dist-packages_arni_msgs_msg__RatedStatistics'
p2451
(dp2452
g6
(dp2453
g8
S'_home_virtubuntu_catkin_ws_devel_lib_python2_7_dist-packages_arni_msgs_msg__RatedStatistics.html'
p2454
sg10
S'/home/virtubuntu/catkin_ws/devel/lib/python2.7/dist-packages/arni_msgs/msg/_RatedStatistics'
p2455
sg12
g13
(g14
g15
NtRp2456
(dp2457
g18
I1
sg19
I0
sg20
I317
sg21
I0
sg22
I0
sg23
I218
sg24
I0
sbssg25
S'\xf6fFV\xce\x9eM\xf9\xd6\x1bd\xd8[\xd1\xfe{'
p2458
ssS'_home_virtubuntu__local_lib_python2_7_site-packages_pyqtgraph_graphicsItems_PlotCurveItem'
p2459
(dp2460
g6
(dp2461
g8
S'_home_virtubuntu__local_lib_python2_7_site-packages_pyqtgraph_graphicsItems_PlotCurveItem.html'
p2462
sg10
S'/home/virtubuntu/.local/lib/python2.7/site-packages/pyqtgraph/graphicsItems/PlotCurveItem'
p2463
sg12
g13
(g14
g15
NtRp2464
(dp2465
g18
I1
sg19
I0
sg20
I321
sg21
I0
sg22
I0
sg23
I120
sg24
I0
sbssg25
S'\xf34\x92\xe4!P\xa0\xcb\xf8\x8b\x0c\x02\x14R\x80\xc0'
p2466
ssS'_opt_ros_indigo_lib_python2_7_dist-packages_rosgraph_xmlrpc'
p2467
(dp2468
g6
(dp2469
g8
S'_opt_ros_indigo_lib_python2_7_dist-packages_rosgraph_xmlrpc.html'
p2470
sg10
S'/opt/ros/indigo/lib/python2.7/dist-packages/rosgraph/xmlrpc'
p2471
sg12
g13
(g14
g15
NtRp2472
(dp2473
g18
I1
sg19
I0
sg20
I137
sg21
I0
sg22
I0
sg23
I90
sg24
I0
sbssg25
S'\xe4\x18\xf9\x88J\xadh\xf9\xcc\x19\xab\xa8%\x8adT'
p2474
ssS'_home_virtubuntu__local_lib_python2_7_site-packages_pyqtgraph_widgets_DataFilterWidget'
p2475
(dp2476
g6
(dp2477
g8
S'_home_virtubuntu__local_lib_python2_7_site-packages_pyqtgraph_widgets_DataFilterWidget.html'
p2478
sg10
S'/home/virtubuntu/.local/lib/python2.7/site-packages/pyqtgraph/widgets/DataFilterWidget'
p2479
sg12
g13
(g14
g15
NtRp2480
(dp2481
g18
I1
sg19
I0
sg20
I104
sg21
I0
sg22
I0
sg23
I75
sg24
I0
sbssg25
S'\x80\xfa\x8c*\x94.\xc7C6Kj\xdf\xcd\x04\xc9\t'
p2482
ssS'_usr_local_lib_python2_7_dist-packages_numpy_distutils_command_autodist'
p2483
(dp2484
g6
(dp2485
g8
S'_usr_local_lib_python2_7_dist-packages_numpy_distutils_command_autodist.html'
p2486
sg10
S'/usr/local/lib/python2.7/dist-packages/numpy/distutils/command/autodist'
p2487
sg12
g13
(g14
g15
NtRp2488
(dp2489
g18
I1
sg19
I0
sg20
I13
sg21
I0
sg22
I0
sg23
I10
sg24
I0
sbssg25
S'*\x8fg%q\xe6\x8a\x1a\xf2n\x85\xc9rh\xce\xf8'
p2490
ssS'_home_virtubuntu__local_lib_python2_7_site-packages_pyqtgraph_GraphicsScene_exportDialog'
p2491
(dp2492
g6
(dp2493
g8
S'_home_virtubuntu__local_lib_python2_7_site-packages_pyqtgraph_GraphicsScene_exportDialog.html'
p2494
sg10
S'/home/virtubuntu/.local/lib/python2.7/site-packages/pyqtgraph/GraphicsScene/exportDialog'
p2495
sg12
g13
(g14
g15
NtRp2496
(dp2497
g18
I1
sg19
I0
sg20
I110
sg21
I0
sg22
I0
sg23
I94
sg24
I0
sbssg25
S'\x03\x1b c\x93\x92\x0b\x0e\xb7C\x92\x99\x84\xa0\x84*'
p2498
ssS'_home_virtubuntu_catkin_ws_src_arni_arni_gui_src_arni_gui_helper_functions'
p2499
(dp2500
g6
(dp2501
g8
S'_home_virtubuntu_catkin_ws_src_arni_arni_gui_src_arni_gui_helper_functions.html'
p2502
sg10
S'/home/virtubuntu/catkin_ws/src/arni/arni_gui/src/arni_gui/helper_functions'
p2503
sg12
g13
(g14
g15
NtRp2504
(dp2505
g18
I1
sg19
I0
sg20
I95
sg21
I0
sg22
I0
sg23
I28
sg24
I0
sbssg25
S'\xa7TN\x10j\x15=\xfe}\xfb\xa6wi\x1c\xf3\x97'
p2506
ssS'_opt_ros_indigo_lib_python2_7_dist-packages_qt_gui_about_handler'
p2507
(dp2508
g6
(dp2509
g8
S'_opt_ros_indigo_lib_python2_7_dist-packages_qt_gui_about_handler.html'
p2510
sg10
S'/opt/ros/indigo/lib/python2.7/dist-packages/qt_gui/about_handler'
p2511
sg12
g13
(g14
g15
NtRp2512
(dp2513
g18
I1
sg19
I0
sg20
I42
sg21
I0
sg22
I0
sg23
I30
sg24
I0
sbssg25
S'H\xdd\xd4i$\xc5\xf16N\xfe\x98\xad\x83\x9fm\xf6'
p2514
ssS'_home_virtubuntu__local_lib_python2_7_site-packages_pyqtgraph_graphicsItems_GraphicsObject'
p2515
(dp2516
g6
(dp2517
g8
S'_home_virtubuntu__local_lib_python2_7_site-packages_pyqtgraph_graphicsItems_GraphicsObject.html'
p2518
sg10
S'/home/virtubuntu/.local/lib/python2.7/site-packages/pyqtgraph/graphicsItems/GraphicsObject'
p2519
sg12
g13
(g14
g15
NtRp2520
(dp2521
g18
I1
sg19
I0
sg20
I21
sg21
I0
sg22
I0
sg23
I0
sg24
I0
sbssg25
S"\xadd`M\xab\xa8'\xf12Fd\xac\x1f\xfb\x8bj"
p2522
ssS'_opt_ros_indigo_lib_python2_7_dist-packages_rospy_exceptions'
p2523
(dp2524
g6
(dp2525
g8
S'_opt_ros_indigo_lib_python2_7_dist-packages_rospy_exceptions.html'
p2526
sg10
S'/opt/ros/indigo/lib/python2.7/dist-packages/rospy/exceptions'
p2527
sg12
g13
(g14
g15
NtRp2528
(dp2529
g18
I1
sg19
I0
sg20
I17
sg21
I0
sg22
I0
sg23
I0
sg24
I0
sbssg25
S'\x0bU]\x11\x85\xba<\xe1\x14P\xadd\xaa\xbc\xc9\xca'
p2530
ssS'_home_virtubuntu__local_lib_python2_7_site-packages_pyqtgraph_graphicsItems_AxisItem'
p2531
(dp2532
g6
(dp2533
g8
S'_home_virtubuntu__local_lib_python2_7_site-packages_pyqtgraph_graphicsItems_AxisItem.html'
p2534
sg10
S'/home/virtubuntu/.local/lib/python2.7/site-packages/pyqtgraph/graphicsItems/AxisItem'
p2535
sg12
g13
(g14
g15
NtRp2536
(dp2537
g18
I1
sg19
I0
sg20
I525
sg21
I0
sg22
I0
sg23
I126
sg24
I0
sbssg25
S'\xa2r.\x18\xff\xd5\x94\x85<4\xb5\xcf\x88>8%'
p2538
ssS'_opt_ros_indigo_lib_python2_7_dist-packages_qt_gui_plugin_manager_dbus_interface'
p2539
(dp2540
g6
(dp2541
g8
S'_opt_ros_indigo_lib_python2_7_dist-packages_qt_gui_plugin_manager_dbus_interface.html'
p2542
sg10
S'/opt/ros/indigo/lib/python2.7/dist-packages/qt_gui/plugin_manager_dbus_interface'
p2543
sg12
g13
(g14
g15
NtRp2544
(dp2545
g18
I1
sg19
I0
sg20
I22
sg21
I0
sg22
I0
sg23
I13
sg24
I0
sbssg25
S'BjdF\xe7\xf8\xebj\xb5\x92\x89\xda\xec\xf0Z,'
p2546
ssS'_opt_ros_indigo_lib_python2_7_dist-packages_qt_gui_main'
p2547
(dp2548
g6
(dp2549
g8
S'_opt_ros_indigo_lib_python2_7_dist-packages_qt_gui_main.html'
p2550
sg10
S'/opt/ros/indigo/lib/python2.7/dist-packages/qt_gui/main'
p2551
sg12
g13
(g14
g15
NtRp2552
(dp2553
g18
I1
sg19
I0
sg20
I363
sg21
I0
sg22
I0
sg23
I128
sg24
I0
sbssg25
S'\x8e\xdec5;\x82\rf\xab\xc8\xba\xb4\x0bh\xeb\x14'
p2554
ssS'_usr_local_lib_python2_7_dist-packages_numpy_lib__iotools'
p2555
(dp2556
g6
(dp2557
g8
S'_usr_local_lib_python2_7_dist-packages_numpy_lib__iotools.html'
p2558
sg10
S'/usr/local/lib/python2.7/dist-packages/numpy/lib/_iotools'
p2559
sg12
g13
(g14
g15
NtRp2560
(dp2561
g18
I1
sg19
I0
sg20
I372
sg21
I0
sg22
I0
sg23
I320
sg24
I0
sbssg25
S'\xe5j\x8fJ\xfe\xbb*\xa8\x8c\xc9g\x16?\x96\xb2\xea'
p2562
ssS'_opt_ros_indigo_lib_python2_7_dist-packages_catkin_workspace'
p2563
(dp2564
g6
(dp2565
g8
S'_opt_ros_indigo_lib_python2_7_dist-packages_catkin_workspace.html'
p2566
sg10
S'/opt/ros/indigo/lib/python2.7/dist-packages/catkin/workspace'
p2567
sg12
g13
(g14
g15
NtRp2568
(dp2569
g18
I1
sg19
I0
sg20
I23
sg21
I0
sg22
I0
sg23
I14
sg24
I0
sbssg25
S'\x9f<\xcb\x14$\n\xdc\xfc\xa6\xb5\xa4\xd3\xd2\xd1!\xd5'
p2570
ssS'_usr_local_lib_python2_7_dist-packages_numpy___config__'
p2571
(dp2572
g6
(dp2573
g8
S'_usr_local_lib_python2_7_dist-packages_numpy___config__.html'
p2574
sg10
S'/usr/local/lib/python2.7/dist-packages/numpy/__config__'
p2575
sg12
g13
(g14
g15
NtRp2576
(dp2577
g18
I1
sg19
I0
sg20
I29
sg21
I0
sg22
I0
sg23
I12
sg24
I0
sbssg25
S'Oe\x04\xfeWk+7\xdb\\i2-\x8b\xe2S'
p2578
ssS'_home_virtubuntu__local_lib_python2_7_site-packages_pyqtgraph_graphicsItems_CurvePoint'
p2579
(dp2580
g6
(dp2581
g8
S'_home_virtubuntu__local_lib_python2_7_site-packages_pyqtgraph_graphicsItems_CurvePoint.html'
p2582
sg10
S'/home/virtubuntu/.local/lib/python2.7/site-packages/pyqtgraph/graphicsItems/CurvePoint'
p2583
sg12
g13
(g14
g15
NtRp2584
(dp2585
g18
I1
sg19
I0
sg20
I80
sg21
I0
sg22
I0
sg23
I62
sg24
I0
sbssg25
S'\xe4\xc6\x99\x96\x0c-o&tl\x88\x07j\x8d\xfa5'
p2586
ssS'_home_virtubuntu_catkin_ws_src_arni_arni_gui_src_arni_gui_connection_item_sub'
p2587
(dp2588
g6
(dp2589
g8
S'_home_virtubuntu_catkin_ws_src_arni_arni_gui_src_arni_gui_connection_item_sub.html'
p2590
sg10
S'/home/virtubuntu/catkin_ws/src/arni/arni_gui/src/arni_gui/connection_item_sub'
p2591
sg12
g13
(g14
g15
NtRp2592
(dp2593
g18
I1
sg19
I0
sg20
I35
sg21
I0
sg22
I0
sg23
I2
sg24
I0
sbssg25
S'V\x1b\x86Pp\x9c\xa8\xdb\xdc\xf8\xf1*\xe1_/\xbc'
p2594
ssS'_usr_local_lib_python2_7_dist-packages_numpy_polynomial_chebyshev'
p2595
(dp2596
g6
(dp2597
g8
S'_usr_local_lib_python2_7_dist-packages_numpy_polynomial_chebyshev.html'
p2598
sg10
S'/usr/local/lib/python2.7/dist-packages/numpy/polynomial/chebyshev'
p2599
sg12
g13
(g14
g15
NtRp2600
(dp2601
g18
I1
sg19
I0
sg20
I432
sg21
I0
sg22
I0
sg23
I386
sg24
I0
sbssg25
S'\xf39\xf0\x9d\xe9\x97\x0b\xbc\xd9@\xdf\x97\xe5,?p'
p2602
ssS'_opt_ros_indigo_lib_python2_7_dist-packages_std_msgs_msg__Float64MultiArray'
p2603
(dp2604
g6
(dp2605
g8
S'_opt_ros_indigo_lib_python2_7_dist-packages_std_msgs_msg__Float64MultiArray.html'
p2606
sg10
S'/opt/ros/indigo/lib/python2.7/dist-packages/std_msgs/msg/_Float64MultiArray'
p2607
sg12
g13
(g14
g15
NtRp2608
(dp2609
g18
I1
sg19
I0
sg20
I143
sg21
I0
sg22
I0
sg23
I123
sg24
I0
sbssg25
S'W47\x8dy\x96\xcf\x06\x1c\xea\x88\xadS\xf9\x93\x19'
p2610
ssS'_usr_local_lib_python2_7_dist-packages_numpy_core_machar'
p2611
(dp2612
g6
(dp2613
g8
S'_usr_local_lib_python2_7_dist-packages_numpy_core_machar.html'
p2614
sg10
S'/usr/local/lib/python2.7/dist-packages/numpy/core/machar'
p2615
sg12
g13
(g14
g15
NtRp2616
(dp2617
g18
I1
sg19
I0
sg20
I186
sg21
I0
sg22
I0
sg23
I26
sg24
I0
sbssg25
S"'\xcbt\xff=\x06:'\x07:W\xf2\xb1\xb6\x0c\xcb"
p2618
ssS'_usr_local_lib_python2_7_dist-packages_numpy_lib_utils'
p2619
(dp2620
g6
(dp2621
g8
S'_usr_local_lib_python2_7_dist-packages_numpy_lib_utils.html'
p2622
sg10
S'/usr/local/lib/python2.7/dist-packages/numpy/lib/utils'
p2623
sg12
g13
(g14
g15
NtRp2624
(dp2625
g18
I1
sg19
I0
sg20
I517
sg21
I0
sg22
I0
sg23
I438
sg24
I0
sbssg25
S'\xcc\xb2@\xd2t(\xe1)Mr\xa5T\xd9r[\xef'
p2626
ssS'_home_virtubuntu_catkin_ws_src_arni_arni_gui_src_arni_gui_abstract_item'
p2627
(dp2628
g6
(dp2629
g8
S'_home_virtubuntu_catkin_ws_src_arni_arni_gui_src_arni_gui_abstract_item.html'
p2630
sg10
S'/home/virtubuntu/catkin_ws/src/arni/arni_gui/src/arni_gui/abstract_item'
p2631
sg12
g13
(g14
g15
NtRp2632
(dp2633
g18
I1
sg19
I0
sg20
I311
sg21
I0
sg22
I0
sg23
I116
sg24
I0
sbssg25
S'\xbb\xdf)\xcdt\xcb5\x97\xe6\xe0\x1e\x947\x86nv'
p2634
ssS'_usr_local_lib_python2_7_dist-packages_numpy_distutils_command_build_py'
p2635
(dp2636
g6
(dp2637
g8
S'_usr_local_lib_python2_7_dist-packages_numpy_distutils_command_build_py.html'
p2638
sg10
S'/usr/local/lib/python2.7/dist-packages/numpy/distutils/command/build_py'
p2639
sg12
g13
(g14
g15
NtRp2640
(dp2641
g18
I1
sg19
I0
sg20
I21
sg21
I0
sg22
I0
sg23
I14
sg24
I0
sbssg25
S'v\xed\xed8*\xfb\xb22\x8dT6\xb4\xe6\x1e\xbc\xe4'
p2642
ssS'_home_virtubuntu__local_lib_python2_7_site-packages_pyqtgraph_graphicsItems_MultiPlotItem'
p2643
(dp2644
g6
(dp2645
g8
S'_home_virtubuntu__local_lib_python2_7_site-packages_pyqtgraph_graphicsItems_MultiPlotItem.html'
p2646
sg10
S'/home/virtubuntu/.local/lib/python2.7/site-packages/pyqtgraph/graphicsItems/MultiPlotItem'
p2647
sg12
g13
(g14
g15
NtRp2648
(dp2649
g18
I1
sg19
I0
sg20
I44
sg21
I0
sg22
I0
sg23
I33
sg24
I0
sbssg25
S'\x9fP7\xcf\xde8G]G|iX^\xa5\x98\xab'
p2650
ssS'_home_virtubuntu__local_lib_python2_7_site-packages_pyqtgraph_GraphicsScene_mouseEvents'
p2651
(dp2652
g6
(dp2653
g8
S'_home_virtubuntu__local_lib_python2_7_site-packages_pyqtgraph_GraphicsScene_mouseEvents.html'
p2654
sg10
S'/home/virtubuntu/.local/lib/python2.7/site-packages/pyqtgraph/GraphicsScene/mouseEvents'
p2655
sg12
g13
(g14
g15
NtRp2656
(dp2657
g18
I1
sg19
I0
sg20
I169
sg21
I0
sg22
I0
sg23
I98
sg24
I0
sbssg25
S'?\x87\x8f\x86\x9c\xef\x02\xbe\x82,\x00H\r\xcd`*'
p2658
ssS'_usr_local_lib_python2_7_dist-packages_numpy_distutils_command_build_clib'
p2659
(dp2660
g6
(dp2661
g8
S'_usr_local_lib_python2_7_dist-packages_numpy_distutils_command_build_clib.html'
p2662
sg10
S'/usr/local/lib/python2.7/dist-packages/numpy/distutils/command/build_clib'
p2663
sg12
g13
(g14
g15
NtRp2664
(dp2665
g18
I1
sg19
I0
sg20
I168
sg21
I0
sg22
I0
sg23
I145
sg24
I0
sbssg25
S'\x05\xce\x02\xc8B\xbb;A\xd8V\x15\xf3e}\n5'
p2666
ssS'_opt_ros_indigo_lib_python2_7_dist-packages_rosgraph_msgs_msg___init__'
p2667
(dp2668
g6
(dp2669
g8
S'_opt_ros_indigo_lib_python2_7_dist-packages_rosgraph_msgs_msg___init__.html'
p2670
sg10
S'/opt/ros/indigo/lib/python2.7/dist-packages/rosgraph_msgs/msg/__init__'
p2671
sg12
g13
(g14
g15
NtRp2672
(dp2673
g18
I1
sg19
I0
sg20
I3
sg21
I0
sg22
I0
sg23
I0
sg24
I0
sbssg25
S'\xa2\xc5#r(\xae\xc8\x0f\x01\x1b\x87x\xd1\xbe\x1d\x17'
p2674
ssS'_home_virtubuntu__local_lib_python2_7_site-packages_pyqtgraph_Point'
p2675
(dp2676
g6
(dp2677
g8
S'_home_virtubuntu__local_lib_python2_7_site-packages_pyqtgraph_Point.html'
p2678
sg10
S'/home/virtubuntu/.local/lib/python2.7/site-packages/pyqtgraph/Point'
p2679
sg12
g13
(g14
g15
NtRp2680
(dp2681
g18
I1
sg19
I0
sg20
I101
sg21
I0
sg22
I0
sg23
I46
sg24
I0
sbssg25
S'\xc9 \xf5\x95\xeen\xa5\xe2=\x8b\x8eV\xea6\xb3!'
p2682
ssS'_opt_ros_indigo_lib_python2_7_dist-packages_rqt_topic_topic_widget'
p2683
(dp2684
g6
(dp2685
g8
S'_opt_ros_indigo_lib_python2_7_dist-packages_rqt_topic_topic_widget.html'
p2686
sg10
S'/opt/ros/indigo/lib/python2.7/dist-packages/rqt_topic/topic_widget'
p2687
sg12
g13
(g14
g15
NtRp2688
(dp2689
g18
I1
sg19
I0
sg20
I208
sg21
I0
sg22
I0
sg23
I89
sg24
I0
sbssg25
S'f\xbbN#\xfb\xc3\xd1\xb6Hq\xae\x10\x02\xf9\xd4\xc8'
p2690
ssS'_opt_ros_indigo_lib_python2_7_dist-packages_rospy_rostime'
p2691
(dp2692
g6
(dp2693
g8
S'_opt_ros_indigo_lib_python2_7_dist-packages_rospy_rostime.html'
p2694
sg10
S'/opt/ros/indigo/lib/python2.7/dist-packages/rospy/rostime'
p2695
sg12
g13
(g14
g15
NtRp2696
(dp2697
g18
I1
sg19
I0
sg20
I74
sg21
I0
sg22
I0
sg23
I29
sg24
I0
sbssg25
S'\x9e\xe3k\xaeb\x1e\x1e\x8e\xf9Q\x95\xab/b9\x80'
p2698
ssS'_home_virtubuntu_catkin_ws_src_arni_rqt_arni_gui_detail_src_rqt_arni_gui_detail_selection_widget'
p2699
(dp2700
g6
(dp2701
g8
S'_home_virtubuntu_catkin_ws_src_arni_rqt_arni_gui_detail_src_rqt_arni_gui_detail_selection_widget.html'
p2702
sg10
S'/home/virtubuntu/catkin_ws/src/arni/rqt_arni_gui_detail/src/rqt_arni_gui_detail/selection_widget'
p2703
sg12
g13
(g14
g15
NtRp2704
(dp2705
g18
I1
sg19
I0
sg20
I265
sg21
I0
sg22
I0
sg23
I24
sg24
I0
sbssg25
S'Y!\x0b\xb5\xb8Z\xd4-\x9c\x7f{\xbbE"\x0b\x04'
p2706
ssS'_opt_ros_indigo_lib_python2_7_dist-packages_std_msgs_msg__Float32'
p2707
(dp2708
g6
(dp2709
g8
S'_opt_ros_indigo_lib_python2_7_dist-packages_std_msgs_msg__Float32.html'
p2710
sg10
S'/opt/ros/indigo/lib/python2.7/dist-packages/std_msgs/msg/_Float32'
p2711
sg12
g13
(g14
g15
NtRp2712
(dp2713
g18
I1
sg19
I0
sg20
I49
sg21
I0
sg22
I0
sg23
I30
sg24
I0
sbssg25
S'\ri\xc6\x1e}\xe9\xe9Q\xac\xd5Q\x99E\x05\x07\xbb'
p2714
ssS'_home_virtubuntu_catkin_ws_devel_lib_python2_7_dist-packages_arni_msgs_msg___init__'
p2715
(dp2716
g6
(dp2717
g8
S'_home_virtubuntu_catkin_ws_devel_lib_python2_7_dist-packages_arni_msgs_msg___init__.html'
p2718
sg10
S'/home/virtubuntu/catkin_ws/devel/lib/python2.7/dist-packages/arni_msgs/msg/__init__'
p2719
sg12
g13
(g14
g15
NtRp2720
(dp2721
g18
I1
sg19
I0
sg20
I4
sg21
I0
sg22
I0
sg23
I0
sg24
I0
sbssg25
S'\xc7@\xa5\x9c\xca\xfa\x14\xf4\x15U\n\xdbb\xca\xf6\x9a'
p2722
ssS'_opt_ros_indigo_lib_python2_7_dist-packages_rostopic___init__'
p2723
(dp2724
g6
(dp2725
g8
S'_opt_ros_indigo_lib_python2_7_dist-packages_rostopic___init__.html'
p2726
sg10
S'/opt/ros/indigo/lib/python2.7/dist-packages/rostopic/__init__'
p2727
sg12
g13
(g14
g15
NtRp2728
(dp2729
g18
I1
sg19
I0
sg20
I1090
sg21
I0
sg22
I0
sg23
I985
sg24
I0
sbssg25
S'\xf8\x7f\xfe\xael\xf5\xa8!\xcaQ)\x15\x13\x86^\xbd'
p2730
ssS'_home_virtubuntu__local_lib_python2_7_site-packages_pyqtgraph_widgets_JoystickButton'
p2731
(dp2732
g6
(dp2733
g8
S'_home_virtubuntu__local_lib_python2_7_site-packages_pyqtgraph_widgets_JoystickButton.html'
p2734
sg10
S'/home/virtubuntu/.local/lib/python2.7/site-packages/pyqtgraph/widgets/JoystickButton'
p2735
sg12
g13
(g14
g15
NtRp2736
(dp2737
g18
I1
sg19
I0
sg20
I69
sg21
I0
sg22
I0
sg23
I54
sg24
I0
sbssg25
S'\xeb\xab/]\x12\x89M!\xd9\x1eD\xdd\x03T(\xcf'
p2738
ssS'_opt_ros_indigo_lib_python2_7_dist-packages_qt_gui_cpp_cpp_plugin_provider'
p2739
(dp2740
g6
(dp2741
g8
S'_opt_ros_indigo_lib_python2_7_dist-packages_qt_gui_cpp_cpp_plugin_provider.html'
p2742
sg10
S'/opt/ros/indigo/lib/python2.7/dist-packages/qt_gui_cpp/cpp_plugin_provider'
p2743
sg12
g13
(g14
g15
NtRp2744
(dp2745
g18
I1
sg19
I0
sg20
I9
sg21
I0
sg22
I0
sg23
I0
sg24
I0
sbssg25
S'\xbe\xa8\xdd\x80\xe0N\xc8\xa2\xc9\x8f\xaa\x06\xcdcP<'
p2746
ssS'_opt_ros_indigo_lib_python2_7_dist-packages_genmsg_msg_loader'
p2747
(dp2748
g6
(dp2749
g8
S'_opt_ros_indigo_lib_python2_7_dist-packages_genmsg_msg_loader.html'
p2750
sg10
S'/opt/ros/indigo/lib/python2.7/dist-packages/genmsg/msg_loader'
p2751
sg12
g13
(g14
g15
NtRp2752
(dp2753
g18
I1
sg19
I0
sg20
I229
sg21
I0
sg22
I0
sg23
I192
sg24
I0
sbssg25
S'!\xc5\xcd\x9a\x9e\xa3J\x15\xe5\xd8\xf9\xf2\x0f\xc5\x90\x1d'
p2754
ssS'_usr_local_lib_python2_7_dist-packages_numpy_matrixlib___init__'
p2755
(dp2756
g6
(dp2757
g8
S'_usr_local_lib_python2_7_dist-packages_numpy_matrixlib___init__.html'
p2758
sg10
S'/usr/local/lib/python2.7/dist-packages/numpy/matrixlib/__init__'
p2759
sg12
g13
(g14
g15
NtRp2760
(dp2761
g18
I1
sg19
I0
sg20
I6
sg21
I0
sg22
I0
sg23
I0
sg24
I0
sbssg25
S'\xbd\t\xbc\x04\x13\xe5\x04\xd8k\x0b\xcb\x16\x8e\xfd\xf6\x97'
p2762
ssS'_usr_local_lib_python2_7_dist-packages_numpy_ctypeslib'
p2763
(dp2764
g6
(dp2765
g8
S'_usr_local_lib_python2_7_dist-packages_numpy_ctypeslib.html'
p2766
sg10
S'/usr/local/lib/python2.7/dist-packages/numpy/ctypeslib'
p2767
sg12
g13
(g14
g15
NtRp2768
(dp2769
g18
I1
sg19
I0
sg20
I187
sg21
I0
sg22
I0
sg23
I144
sg24
I0
sbssg25
S'`:\xbbZ\x13\x98Y\xcas\xfd\xff\xebjE\x90)'
p2770
ssS'_home_virtubuntu__local_lib_python2_7_site-packages_pyqtgraph_graphicsItems_PlotItem_plotConfigTemplate_pyqt'
p2771
(dp2772
g6
(dp2773
g8
S'_home_virtubuntu__local_lib_python2_7_site-packages_pyqtgraph_graphicsItems_PlotItem_plotConfigTemplate_pyqt.html'
p2774
sg10
S'/home/virtubuntu/.local/lib/python2.7/site-packages/pyqtgraph/graphicsItems/PlotItem/plotConfigTemplate_pyqt'
p2775
sg12
g13
(g14
g15
NtRp2776
(dp2777
g18
I1
sg19
I0
sg20
I159
sg21
I0
sg22
I0
sg23
I0
sg24
I0
sbssg25
S'\xcd\xb6\x83\xdb\xc8#Jn?\xd7-\x80k\x8aN\xfa'
p2778
ssS'_home_virtubuntu_catkin_ws_devel_lib_python2_7_dist-packages_rqt_arni_gui_overview___init__'
p2779
(dp2780
g6
(dp2781
g8
S'_home_virtubuntu_catkin_ws_devel_lib_python2_7_dist-packages_rqt_arni_gui_overview___init__.html'
p2782
sg10
S'/home/virtubuntu/catkin_ws/devel/lib/python2.7/dist-packages/rqt_arni_gui_overview/__init__'
p2783
sg12
g13
(g14
g15
NtRp2784
(dp2785
g18
I1
sg19
I0
sg20
I28
sg21
I0
sg22
I0
sg23
I1
sg24
I0
sbssg25
S'\x91\xadP(\xeb\xa6\x02\xd0P\xc5\xf4\x83\x7f\x81\xa4\xf9'
p2786
ssS'_usr_local_lib_python2_7_dist-packages_numpy_lib_type_check'
p2787
(dp2788
g6
(dp2789
g8
S'_usr_local_lib_python2_7_dist-packages_numpy_lib_type_check.html'
p2790
sg10
S'/usr/local/lib/python2.7/dist-packages/numpy/lib/type_check'
p2791
sg12
g13
(g14
g15
NtRp2792
(dp2793
g18
I1
sg19
I0
sg20
I104
sg21
I0
sg22
I0
sg23
I81
sg24
I0
sbssg25
S'\x83\x19E\xab\xef\xa5\x15N\xc3\xecc\x8b\xf5\x89\x8f\xf1'
p2794
ssS'_home_virtubuntu__local_lib_python2_7_site-packages_pyqtgraph_graphicsItems_InfiniteLine'
p2795
(dp2796
g6
(dp2797
g8
S'_home_virtubuntu__local_lib_python2_7_site-packages_pyqtgraph_graphicsItems_InfiniteLine.html'
p2798
sg10
S'/home/virtubuntu/.local/lib/python2.7/site-packages/pyqtgraph/graphicsItems/InfiniteLine'
p2799
sg12
g13
(g14
g15
NtRp2800
(dp2801
g18
I1
sg19
I0
sg20
I131
sg21
I0
sg22
I0
sg23
I102
sg24
I0
sbssg25
S"\xb5\xe4\xa1\x84>'\x99\xa6q\xe1\x00\xf0\x10\xe21\x0f"
p2802
ssS'_opt_ros_indigo_lib_python2_7_dist-packages_qt_gui_dock_widget_container'
p2803
(dp2804
g6
(dp2805
g8
S'_opt_ros_indigo_lib_python2_7_dist-packages_qt_gui_dock_widget_container.html'
p2806
sg10
S'/opt/ros/indigo/lib/python2.7/dist-packages/qt_gui/dock_widget_container'
p2807
sg12
g13
(g14
g15
NtRp2808
(dp2809
g18
I1
sg19
I0
sg20
I42
sg21
I0
sg22
I0
sg23
I29
sg24
I0
sbssg25
S'\xabu\x85Z\xda\xac\xbc\xb7\\\x8d#As\xe3\x19\x7f'
p2810
ssS'_home_virtubuntu__local_lib_python2_7_site-packages_pyqtgraph_GraphicsScene_GraphicsScene'
p2811
(dp2812
g6
(dp2813
g8
S'_home_virtubuntu__local_lib_python2_7_site-packages_pyqtgraph_GraphicsScene_GraphicsScene.html'
p2814
sg10
S'/home/virtubuntu/.local/lib/python2.7/site-packages/pyqtgraph/GraphicsScene/GraphicsScene'
p2815
sg12
g13
(g14
g15
NtRp2816
(dp2817
g18
I1
sg19
I0
sg20
I282
sg21
I0
sg22
I0
sg23
I154
sg24
I0
sbssg25
S'K\x13v\xe2\x85{"\x01q|o6<\xa4\xd4\xf9'
p2818
ssS'_usr_local_lib_python2_7_dist-packages_numpy_linalg_linalg'
p2819
(dp2820
g6
(dp2821
g8
S'_usr_local_lib_python2_7_dist-packages_numpy_linalg_linalg.html'
p2822
sg10
S'/usr/local/lib/python2.7/dist-packages/numpy/linalg/linalg'
p2823
sg12
g13
(g14
g15
NtRp2824
(dp2825
g18
I1
sg19
I0
sg20
I530
sg21
I0
sg22
I0
sg23
I463
sg24
I0
sbssg25
S'\xb7\xbep\xa8\xc1\xd2\xe0\x0f\x16Pa\xb7W\x85\xbe\x1b'
p2826
ssS'_home_virtubuntu__local_lib_python2_7_site-packages_pyqtgraph_graphicsItems_FillBetweenItem'
p2827
(dp2828
g6
(dp2829
g8
S'_home_virtubuntu__local_lib_python2_7_site-packages_pyqtgraph_graphicsItems_FillBetweenItem.html'
p2830
sg10
S'/home/virtubuntu/.local/lib/python2.7/site-packages/pyqtgraph/graphicsItems/FillBetweenItem'
p2831
sg12
g13
(g14
g15
NtRp2832
(dp2833
g18
I1
sg19
I0
sg20
I18
sg21
I0
sg22
I0
sg23
I14
sg24
I0
sbssg25
S'\x00\x18\xf6\x9d&?\xe6\xb6\xc4\xe4\xcc6f\xbe\x98\x04'
p2834
ssS'_usr_local_lib_python2_7_dist-packages_numpy_polynomial_legendre'
p2835
(dp2836
g6
(dp2837
g8
S'_usr_local_lib_python2_7_dist-packages_numpy_polynomial_legendre.html'
p2838
sg10
S'/usr/local/lib/python2.7/dist-packages/numpy/polynomial/legendre'
p2839
sg12
g13
(g14
g15
NtRp2840
(dp2841
g18
I1
sg19
I0
sg20
I386
sg21
I0
sg22
I0
sg23
I348
sg24
I0
sbssg25
S'\xab\x81<=%:\xba\\\x15\xb3V\xdd\xa7tT\xb0'
p2842
ssS'_usr_share_pyshared_catkin_pkg_packages'
p2843
(dp2844
g6
(dp2845
g8
S'_usr_share_pyshared_catkin_pkg_packages.html'
p2846
sg10
S'/usr/share/pyshared/catkin_pkg/packages'
p2847
sg12
g13
(g14
g15
NtRp2848
(dp2849
g18
I1
sg19
I0
sg20
I44
sg21
I0
sg22
I0
sg23
I37
sg24
I0
sbssg25
S'`\x01\xda\x1a\xad\xfe\xda\xe7\xcaw\xd9\x12\xf2\n\x9c\xfa'
p2850
ssS'_home_virtubuntu_catkin_ws_src_arni_rqt_arni_gui_overview_src_rqt_arni_gui_overview_overview_widget'
p2851
(dp2852
g6
(dp2853
g8
S'_home_virtubuntu_catkin_ws_src_arni_rqt_arni_gui_overview_src_rqt_arni_gui_overview_overview_widget.html'
p2854
sg10
S'/home/virtubuntu/catkin_ws/src/arni/rqt_arni_gui_overview/src/rqt_arni_gui_overview/overview_widget'
p2855
sg12
g13
(g14
g15
NtRp2856
(dp2857
g18
I1
sg19
I0
sg20
I216
sg21
I0
sg22
I0
sg23
I26
sg24
I0
sbssg25
S'\xd5\xfav\xcb&\xact\xb7\x08\xf7\x1c-\xd1\x03\x19\x1a'
p2858
ssS'_home_virtubuntu__local_lib_python2_7_site-packages_pyqtgraph_graphicsItems_ScaleBar'
p2859
(dp2860
g6
(dp2861
g8
S'_home_virtubuntu__local_lib_python2_7_site-packages_pyqtgraph_graphicsItems_ScaleBar.html'
p2862
sg10
S'/home/virtubuntu/.local/lib/python2.7/site-packages/pyqtgraph/graphicsItems/ScaleBar'
p2863
sg12
g13
(g14
g15
NtRp2864
(dp2865
g18
I1
sg19
I0
sg20
I43
sg21
I0
sg22
I0
sg23
I30
sg24
I0
sbssg25
S'\xd7\xf1=\xcd\xac2x\xd8I.\x0c6\x13\xcf\xdf\xa5'
p2866
ssS'_usr_local_lib_python2_7_dist-packages_numpy_oldnumeric_functions'
p2867
(dp2868
g6
(dp2869
g8
S'_usr_local_lib_python2_7_dist-packages_numpy_oldnumeric_functions.html'
p2870
sg10
S'/usr/local/lib/python2.7/dist-packages/numpy/oldnumeric/functions'
p2871
sg12
g13
(g14
g15
NtRp2872
(dp2873
g18
I1
sg19
I0
sg20
I79
sg21
I0
sg22
I0
sg23
I42
sg24
I0
sbssg25
S'\xb7\xd7\xbdi\xfa\xb4\xa9\x9c\xdf\xac\x13\xbc/\x9bz>'
p2874
ssS'_opt_ros_indigo_lib_python2_7_dist-packages_rosgraph_masterapi'
p2875
(dp2876
g6
(dp2877
g8
S'_opt_ros_indigo_lib_python2_7_dist-packages_rosgraph_masterapi.html'
p2878
sg10
S'/opt/ros/indigo/lib/python2.7/dist-packages/rosgraph/masterapi'
p2879
sg12
g13
(g14
g15
NtRp2880
(dp2881
g18
I1
sg19
I0
sg20
I91
sg21
I0
sg22
I0
sg23
I32
sg24
I0
sbssg25
S"L\xbe\x80'\x83\xad\xa5f\x01\xe3\xfe\x94r3u%"
p2882
ssS'_opt_ros_indigo_lib_python2_7_dist-packages_rosgraph_msgs___init__'
p2883
(dp2884
g6
(dp2885
g8
S'_opt_ros_indigo_lib_python2_7_dist-packages_rosgraph_msgs___init__.html'
p2886
sg10
S'/opt/ros/indigo/lib/python2.7/dist-packages/rosgraph_msgs/__init__'
p2887
sg12
g13
(g14
g15
NtRp2888
(dp2889
g18
I1
sg19
I0
sg20
I0
sg21
I0
sg22
I0
sg23
I0
sg24
I0
sbssg25
S'\xca\xf5\x9f\x7f\x88\xdfa\x831|T\x1d\xbc}\xa5v'
p2890
ssS'_opt_ros_indigo_lib_python2_7_dist-packages_std_msgs_msg__UInt64'
p2891
(dp2892
g6
(dp2893
g8
S'_opt_ros_indigo_lib_python2_7_dist-packages_std_msgs_msg__UInt64.html'
p2894
sg10
S'/opt/ros/indigo/lib/python2.7/dist-packages/std_msgs/msg/_UInt64'
p2895
sg12
g13
(g14
g15
NtRp2896
(dp2897
g18
I1
sg19
I0
sg20
I49
sg21
I0
sg22
I0
sg23
I30
sg24
I0
sbssg25
S"!\xe0\x9e\x1ew'y\xdf\x8a\xe1\xeb\xdd\xe9\xab\xfb\xf8"
p2898
ssS'_home_virtubuntu__local_lib_python2_7_site-packages_pyqtgraph_graphicsItems_ImageItem'
p2899
(dp2900
g6
(dp2901
g8
S'_home_virtubuntu__local_lib_python2_7_site-packages_pyqtgraph_graphicsItems_ImageItem.html'
p2902
sg10
S'/home/virtubuntu/.local/lib/python2.7/site-packages/pyqtgraph/graphicsItems/ImageItem'
p2903
sg12
g13
(g14
g15
NtRp2904
(dp2905
g18
I1
sg19
I0
sg20
I246
sg21
I0
sg22
I0
sg23
I206
sg24
I0
sbssg25
S'\x1e\xa1\xae\x804$\xa5|\x02\xd9\x1e\xfc\xfcQ[\x18'
p2906
ssS'_home_virtubuntu__local_lib_python2_7_site-packages_pyqtgraph_SRTTransform'
p2907
(dp2908
g6
(dp2909
g8
S'_home_virtubuntu__local_lib_python2_7_site-packages_pyqtgraph_SRTTransform.html'
p2910
sg10
S'/home/virtubuntu/.local/lib/python2.7/site-packages/pyqtgraph/SRTTransform'
p2911
sg12
g13
(g14
g15
NtRp2912
(dp2913
g18
I1
sg19
I0
sg20
I157
sg21
I0
sg22
I0
sg23
I129
sg24
I0
sbssg25
S'\x00M\x12(GJ\xa3\xd7\x8eN~V\x93\xf8W\xa1'
p2914
ssS'_usr_local_lib_python2_7_dist-packages_numpy_distutils_unixccompiler'
p2915
(dp2916
g6
(dp2917
g8
S'_usr_local_lib_python2_7_dist-packages_numpy_distutils_unixccompiler.html'
p2918
sg10
S'/usr/local/lib/python2.7/dist-packages/numpy/distutils/unixccompiler'
p2919
sg12
g13
(g14
g15
NtRp2920
(dp2921
g18
I1
sg19
I0
sg20
I50
sg21
I0
sg22
I0
sg23
I38
sg24
I0
sbssg25
S'\x08\xa6\xb4\xb6J\\\xc3\x92}\x8f\x95\xfb\xbd_Z\xbf'
p2922
ssS'_usr_local_lib_python2_7_dist-packages_numpy_distutils___version__'
p2923
(dp2924
g6
(dp2925
g8
S'_usr_local_lib_python2_7_dist-packages_numpy_distutils___version__.html'
p2926
sg10
S'/usr/local/lib/python2.7/dist-packages/numpy/distutils/__version__'
p2927
sg12
g13
(g14
g15
NtRp2928
(dp2929
g18
I1
sg19
I0
sg20
I5
sg21
I0
sg22
I0
sg23
I0
sg24
I0
sbssg25
S'Z\xc0\x8a\x98\xa5\xd7`\xa5\xc8s\xd4\xdc-\x94\xecK'
p2930
ssS'_usr_local_lib_python2_7_dist-packages_numpy_lib_ufunclike'
p2931
(dp2932
g6
(dp2933
g8
S'_usr_local_lib_python2_7_dist-packages_numpy_lib_ufunclike.html'
p2934
sg10
S'/usr/local/lib/python2.7/dist-packages/numpy/lib/ufunclike'
p2935
sg12
g13
(g14
g15
NtRp2936
(dp2937
g18
I1
sg19
I0
sg20
I23
sg21
I0
sg22
I0
sg23
I17
sg24
I0
sbssg25
S'\xb5q\xee\x8d\xbf\x96\x08\xf2Q1\xad\xe6$r\xfb\x13'
p2938
ssS'_home_virtubuntu__local_lib_python2_7_site-packages_pyqtgraph_GraphicsScene_exportDialogTemplate_pyqt'
p2939
(dp2940
g6
(dp2941
g8
S'_home_virtubuntu__local_lib_python2_7_site-packages_pyqtgraph_GraphicsScene_exportDialogTemplate_pyqt.html'
p2942
sg10
S'/home/virtubuntu/.local/lib/python2.7/site-packages/pyqtgraph/GraphicsScene/exportDialogTemplate_pyqt'
p2943
sg12
g13
(g14
g15
NtRp2944
(dp2945
g18
I1
sg19
I0
sg20
I54
sg21
I0
sg22
I0
sg23
I45
sg24
I0
sbssg25
S'Y^\x9b\xaf\xc82E\xa6I\xe7\xbd\xa3\x91\x99Z='
p2946
ssS'_home_virtubuntu__local_lib_python2_7_site-packages_pyqtgraph_ThreadsafeTimer'
p2947
(dp2948
g6
(dp2949
g8
S'_home_virtubuntu__local_lib_python2_7_site-packages_pyqtgraph_ThreadsafeTimer.html'
p2950
sg10
S'/home/virtubuntu/.local/lib/python2.7/site-packages/pyqtgraph/ThreadsafeTimer'
p2951
sg12
g13
(g14
g15
NtRp2952
(dp2953
g18
I1
sg19
I0
sg20
I25
sg21
I0
sg22
I0
sg23
I16
sg24
I0
sbssg25
S'\x97z\xbd#\x8f\xa1\xd9-\xc7h\x7f\x1a/g\x16\x0c'
p2954
ssS'_home_virtubuntu__local_lib_python2_7_site-packages_pyqtgraph_graphicsItems_ROI'
p2955
(dp2956
g6
(dp2957
g8
S'_home_virtubuntu__local_lib_python2_7_site-packages_pyqtgraph_graphicsItems_ROI.html'
p2958
sg10
S'/home/virtubuntu/.local/lib/python2.7/site-packages/pyqtgraph/graphicsItems/ROI'
p2959
sg12
g13
(g14
g15
NtRp2960
(dp2961
g18
I1
sg19
I0
sg20
I1049
sg21
I0
sg22
I0
sg23
I887
sg24
I0
sbssg25
S'\x84\xf7>\xb2vi\\\x97\x94\x01\xc4\xbc\x97\x8a\x9e\x9a'
p2962
ssS'_home_virtubuntu__local_lib_python2_7_site-packages_pyqtgraph_parametertree_ParameterTree'
p2963
(dp2964
g6
(dp2965
g8
S'_home_virtubuntu__local_lib_python2_7_site-packages_pyqtgraph_parametertree_ParameterTree.html'
p2966
sg10
S'/home/virtubuntu/.local/lib/python2.7/site-packages/pyqtgraph/parametertree/ParameterTree'
p2967
sg12
g13
(g14
g15
NtRp2968
(dp2969
g18
I1
sg19
I0
sg20
I92
sg21
I0
sg22
I0
sg23
I76
sg24
I0
sbssg25
S'\xbcx@d\xb0paj\x11\xe6 \x0e\x11B\x00#'
p2970
ssS'_home_virtubuntu__local_lib_python2_7_site-packages_pyqtgraph_pgcollections'
p2971
(dp2972
g6
(dp2973
g8
S'_home_virtubuntu__local_lib_python2_7_site-packages_pyqtgraph_pgcollections.html'
p2974
sg10
S'/home/virtubuntu/.local/lib/python2.7/site-packages/pyqtgraph/pgcollections'
p2975
sg12
g13
(g14
g15
NtRp2976
(dp2977
g18
I1
sg19
I0
sg20
I271
sg21
I0
sg22
I0
sg23
I166
sg24
I0
sbssg25
S'j)\x10!l# \xdae=\x96\xe7\xce\xf8t\x89'
p2978
ssS'_opt_ros_indigo_lib_python2_7_dist-packages_rospy_topics'
p2979
(dp2980
g6
(dp2981
g8
S'_opt_ros_indigo_lib_python2_7_dist-packages_rospy_topics.html'
p2982
sg10
S'/opt/ros/indigo/lib/python2.7/dist-packages/rospy/topics'
p2983
sg12
g13
(g14
g15
NtRp2984
(dp2985
g18
I1
sg19
I0
sg20
I519
sg21
I0
sg22
I0
sg23
I220
sg24
I0
sbssg25
S'l\x95\n\xa6\x02\x04\xaf\xb6\x08\x88\n1\x83Qd\xa6'
p2986
ssS'_home_virtubuntu_catkin_ws_src_arni_arni_gui_src_arni_gui_ros_model'
p2987
(dp2988
g6
(dp2989
g8
S'_home_virtubuntu_catkin_ws_src_arni_arni_gui_src_arni_gui_ros_model.html'
p2990
sg10
S'/home/virtubuntu/catkin_ws/src/arni/arni_gui/src/arni_gui/ros_model'
p2991
sg12
g13
(g14
g15
NtRp2992
(dp2993
g18
I1
sg19
I0
sg20
I340
sg21
I0
sg22
I0
sg23
I73
sg24
I0
sbssg25
S'\x85\x99F\xcffz\xef#\x90\x96n\xcenX\xcd\xf4'
p2994
ssS'_opt_ros_indigo_lib_python2_7_dist-packages_rqt_gui_py_ros_py_plugin_provider'
p2995
(dp2996
g6
(dp2997
g8
S'_opt_ros_indigo_lib_python2_7_dist-packages_rqt_gui_py_ros_py_plugin_provider.html'
p2998
sg10
S'/opt/ros/indigo/lib/python2.7/dist-packages/rqt_gui_py/ros_py_plugin_provider'
p2999
sg12
g13
(g14
g15
NtRp3000
(dp3001
g18
I1
sg19
I0
sg20
I54
sg21
I0
sg22
I0
sg23
I22
sg24
I0
sbssg25
S'\xf1+y\x92\x88\xd0\xde\xe6\xcf\x98\xf8\x92[\xa6\xb9\xbd'
p3002
ssS'_opt_ros_indigo_lib_python2_7_dist-packages_std_msgs_msg__Byte'
p3003
(dp3004
g6
(dp3005
g8
S'_opt_ros_indigo_lib_python2_7_dist-packages_std_msgs_msg__Byte.html'
p3006
sg10
S'/opt/ros/indigo/lib/python2.7/dist-packages/std_msgs/msg/_Byte'
p3007
sg12
g13
(g14
g15
NtRp3008
(dp3009
g18
I1
sg19
I0
sg20
I49
sg21
I0
sg22
I0
sg23
I30
sg24
I0
sbssg25
S"\xc2\xa6\xaeh,Th\x9cb\xfe\x12\x03_\xd2>'"
p3010
ssS'_usr_share_pyshared_rospkg_environment'
p3011
(dp3012
g6
(dp3013
g8
S'_usr_share_pyshared_rospkg_environment.html'
p3014
sg10
S'/usr/share/pyshared/rospkg/environment'
p3015
sg12
g13
(g14
g15
NtRp3016
(dp3017
g18
I1
sg19
I0
sg20
I68
sg21
I0
sg22
I0
sg23
I26
sg24
I0
sbssg25
S'\x16\x08q\xbc\x1d\x96\xeb<\x06L>\x1f\xbb\x16\xc2\xf3'
p3018
ssS'_usr_local_lib_python2_7_dist-packages_numpy___init__'
p3019
(dp3020
g6
(dp3021
g8
S'_usr_local_lib_python2_7_dist-packages_numpy___init__.html'
p3022
sg10
S'/usr/local/lib/python2.7/dist-packages/numpy/__init__'
p3023
sg12
g13
(g14
g15
NtRp3024
(dp3025
g18
I1
sg19
I0
sg20
I56
sg21
I0
sg22
I0
sg23
I10
sg24
I0
sbssg25
S'\t\x00=\x82\x82G\x99J\x98C\x98\n\xe3\xb8\x83\x17'
p3026
ssS'_home_virtubuntu_catkin_ws_devel_lib_python2_7_dist-packages_arni_msgs_msg__NodeStatistics'
p3027
(dp3028
g6
(dp3029
g8
S'_home_virtubuntu_catkin_ws_devel_lib_python2_7_dist-packages_arni_msgs_msg__NodeStatistics.html'
p3030
sg10
S'/home/virtubuntu/catkin_ws/devel/lib/python2.7/dist-packages/arni_msgs/msg/_NodeStatistics'
p3031
sg12
g13
(g14
g15
NtRp3032
(dp3033
g18
I1
sg19
I0
sg20
I356
sg21
I0
sg22
I0
sg23
I235
sg24
I0
sbssg25
S'2\xca %\x8f\xb6\x8f*\xe1<\x88\x89h\xb6\x9f\x9c'
p3034
ssS'_opt_ros_indigo_lib_python2_7_dist-packages_rospy_impl_statistics'
p3035
(dp3036
g6
(dp3037
g8
S'_opt_ros_indigo_lib_python2_7_dist-packages_rospy_impl_statistics.html'
p3038
sg10
S'/opt/ros/indigo/lib/python2.7/dist-packages/rospy/impl/statistics'
p3039
sg12
g13
(g14
g15
NtRp3040
(dp3041
g18
I1
sg19
I0
sg20
I101
sg21
I0
sg22
I0
sg23
I17
sg24
I0
sbssg25
S'R\xa3WS\xeff?\x9a\xf7\xd9\x1em\xff\x88\x0f\xcf'
p3042
ssS'_usr_local_lib_python2_7_dist-packages_numpy_dual'
p3043
(dp3044
g6
(dp3045
g8
S'_usr_local_lib_python2_7_dist-packages_numpy_dual.html'
p3046
sg10
S'/usr/local/lib/python2.7/dist-packages/numpy/dual'
p3047
sg12
g13
(g14
g15
NtRp3048
(dp3049
g18
I1
sg19
I0
sg20
I42
sg21
I0
sg22
I0
sg23
I10
sg24
I0
sbssg25
S'|\xae!\x958\xf6\xe2\xee\x01t\xff\\XW\xa5\x12'
p3050
ssS'_opt_ros_indigo_lib_python2_7_dist-packages_roslib_exceptions'
p3051
(dp3052
g6
(dp3053
g8
S'_opt_ros_indigo_lib_python2_7_dist-packages_roslib_exceptions.html'
p3054
sg10
S'/opt/ros/indigo/lib/python2.7/dist-packages/roslib/exceptions'
p3055
sg12
g13
(g14
g15
NtRp3056
(dp3057
g18
I1
sg19
I0
sg20
I3
sg21
I0
sg22
I0
sg23
I0
sg24
I0
sbssg25
S'\xa5\x18>p\xae\x1bO\xea6\t!Gmc\xee\x13'
p3058
ssS'_opt_ros_indigo_lib_python2_7_dist-packages_roslib_packages'
p3059
(dp3060
g6
(dp3061
g8
S'_opt_ros_indigo_lib_python2_7_dist-packages_roslib_packages.html'
p3062
sg10
S'/opt/ros/indigo/lib/python2.7/dist-packages/roslib/packages'
p3063
sg12
g13
(g14
g15
NtRp3064
(dp3065
g18
I1
sg19
I0
sg20
I211
sg21
I0
sg22
I0
sg23
I177
sg24
I0
sbssg25
S'b\xdc\xa3h\xb8\x0f\xab>y\xac\x07\x06\xd1\xb8\x1a\x9d'
p3066
ssS'_usr_local_lib_python2_7_dist-packages_numpy_core_fromnumeric'
p3067
(dp3068
g6
(dp3069
g8
S'_usr_local_lib_python2_7_dist-packages_numpy_core_fromnumeric.html'
p3070
sg10
S'/usr/local/lib/python2.7/dist-packages/numpy/core/fromnumeric'
p3071
sg12
g13
(g14
g15
NtRp3072
(dp3073
g18
I1
sg19
I0
sg20
I310
sg21
I0
sg22
I0
sg23
I226
sg24
I0
sbssg25
S',w\x8eK\xe7\xd8\xa4\xf5\xa9\x1d%\x03DK\xce>'
p3074
ssS'_usr_local_lib_python2_7_dist-packages_numpy_distutils_exec_command'
p3075
(dp3076
g6
(dp3077
g8
S'_usr_local_lib_python2_7_dist-packages_numpy_distutils_exec_command.html'
p3078
sg10
S'/usr/local/lib/python2.7/dist-packages/numpy/distutils/exec_command'
p3079
sg12
g13
(g14
g15
NtRp3080
(dp3081
g18
I1
sg19
I0
sg20
I364
sg21
I0
sg22
I0
sg23
I334
sg24
I0
sbssg25
S'\xad\x96^\xc3\xb5\x86\x01\xa9i\xda\xa8\x1b\x991\xe3\xbd'
p3082
ssS'_usr_share_pyshared_rospkg___init__'
p3083
(dp3084
g6
(dp3085
g8
S'_usr_share_pyshared_rospkg___init__.html'
p3086
sg10
S'/usr/share/pyshared/rospkg/__init__'
p3087
sg12
g13
(g14
g15
NtRp3088
(dp3089
g18
I1
sg19
I0
sg20
I7
sg21
I0
sg22
I0
sg23
I0
sg24
I0
sbssg25
S'\x97\xf0\x9b\xc4\x007\x1a\x11R\xdf\xdd\xdf\x13\x15\x12"'
p3090
ssS'_usr_local_lib_python2_7_dist-packages_numpy_polynomial_hermite_e'
p3091
(dp3092
g6
(dp3093
g8
S'_usr_local_lib_python2_7_dist-packages_numpy_polynomial_hermite_e.html'
p3094
sg10
S'/usr/local/lib/python2.7/dist-packages/numpy/polynomial/hermite_e'
p3095
sg12
g13
(g14
g15
NtRp3096
(dp3097
g18
I1
sg19
I0
sg20
I379
sg21
I0
sg22
I0
sg23
I341
sg24
I0
sbssg25
S"\xa6\x8e\xe9K\xc9'6\xa8DdQ\x05O\xa3\xa5\x08"
p3098
ssS'_opt_ros_indigo_lib_python2_7_dist-packages_rospy_client'
p3099
(dp3100
g6
(dp3101
g8
S'_opt_ros_indigo_lib_python2_7_dist-packages_rospy_client.html'
p3102
sg10
S'/opt/ros/indigo/lib/python2.7/dist-packages/rospy/client'
p3103
sg12
g13
(g14
g15
NtRp3104
(dp3105
g18
I1
sg19
I0
sg20
I200
sg21
I0
sg22
I0
sg23
I87
sg24
I0
sbssg25
S'\xb2B\xd9\xa2:6/\x163b\xf8\xc8X\x12p\xc4'
p3106
ssS'_usr_local_lib_python2_7_dist-packages_numpy_polynomial_polytemplate'
p3107
(dp3108
g6
(dp3109
g8
S'_usr_local_lib_python2_7_dist-packages_numpy_polynomial_polytemplate.html'
p3110
sg10
S'/usr/local/lib/python2.7/dist-packages/numpy/polynomial/polytemplate'
p3111
sg12
g13
(g14
g15
NtRp3112
(dp3113
g18
I1
sg19
I0
sg20
I4
sg21
I0
sg22
I0
sg23
I0
sg24
I0
sbssg25
S'\xfe#\xfb\xef\x98\x14,W\xf7^\x14\xb0\x8e\xc5\xaat'
p3114
ssS'_home_virtubuntu__local_lib_python2_7_site-packages_pyqtgraph_pixmaps_pixmapData_2'
p3115
(dp3116
g6
(dp3117
g8
S'_home_virtubuntu__local_lib_python2_7_site-packages_pyqtgraph_pixmaps_pixmapData_2.html'
p3118
sg10
S'/home/virtubuntu/.local/lib/python2.7/site-packages/pyqtgraph/pixmaps/pixmapData_2'
p3119
sg12
g13
(g14
g15
NtRp3120
(dp3121
g18
I1
sg19
I0
sg20
I1
sg21
I0
sg22
I0
sg23
I0
sg24
I0
sbssg25
S'\x1dgV\x18\x990\x9a\xe1\xc8\xb7k\x88\xcfs\xdbM'
p3122
ssS'_usr_local_lib_python2_7_dist-packages_numpy_oldnumeric___init__'
p3123
(dp3124
g6
(dp3125
g8
S'_usr_local_lib_python2_7_dist-packages_numpy_oldnumeric___init__.html'
p3126
sg10
S'/usr/local/lib/python2.7/dist-packages/numpy/oldnumeric/__init__'
p3127
sg12
g13
(g14
g15
NtRp3128
(dp3129
g18
I1
sg19
I0
sg20
I40
sg21
I0
sg22
I0
sg23
I7
sg24
I0
sbssg25
S':\xe5W\x89k\x99\x04a\x91=\xcd\x80\x1f_P\xc9'
p3130
ssS'_usr_local_lib_python2_7_dist-packages_numpy_distutils_numpy_distribution'
p3131
(dp3132
g6
(dp3133
g8
S'_usr_local_lib_python2_7_dist-packages_numpy_distutils_numpy_distribution.html'
p3134
sg10
S'/usr/local/lib/python2.7/dist-packages/numpy/distutils/numpy_distribution'
p3135
sg12
g13
(g14
g15
NtRp3136
(dp3137
g18
I1
sg19
I0
sg20
I10
sg21
I0
sg22
I0
sg23
I5
sg24
I0
sbssg25
S'j\xa4\\\xe2Nct\xa63\xcc\xdf\xfb\xac\xbc\xc5\xe2'
p3138
ssS'_usr_local_lib_python2_7_dist-packages_numpy_distutils_conv_template'
p3139
(dp3140
g6
(dp3141
g8
S'_usr_local_lib_python2_7_dist-packages_numpy_distutils_conv_template.html'
p3142
sg10
S'/usr/local/lib/python2.7/dist-packages/numpy/distutils/conv_template'
p3143
sg12
g13
(g14
g15
NtRp3144
(dp3145
g18
I1
sg19
I0
sg20
I173
sg21
I0
sg22
I0
sg23
I146
sg24
I0
sbssg25
S'P\x1a\xbdExtz\xe0n\xa3\xe3\x17H\xf3\x00*'
p3146
ssS'_usr_local_lib_python2_7_dist-packages_numpy_distutils_log'
p3147
(dp3148
g6
(dp3149
g8
S'_usr_local_lib_python2_7_dist-packages_numpy_distutils_log.html'
p3150
sg10
S'/usr/local/lib/python2.7/dist-packages/numpy/distutils/log'
p3151
sg12
g13
(g14
g15
NtRp3152
(dp3153
g18
I1
sg19
I0
sg20
I50
sg21
I0
sg22
I0
sg23
I22
sg24
I0
sbssg25
S'\x10\x95\x16.\xb32\xbb\x93\xf1>\x91\x8c\xa3\xbe\x03\xbf'
p3154
ssS'_home_virtubuntu__local_lib_python2_7_site-packages_pyqtgraph_parametertree_parameterTypes'
p3155
(dp3156
g6
(dp3157
g8
S'_home_virtubuntu__local_lib_python2_7_site-packages_pyqtgraph_parametertree_parameterTypes.html'
p3158
sg10
S'/home/virtubuntu/.local/lib/python2.7/site-packages/pyqtgraph/parametertree/parameterTypes'
p3159
sg12
g13
(g14
g15
NtRp3160
(dp3161
g18
I1
sg19
I0
sg20
I400
sg21
I0
sg22
I0
sg23
I314
sg24
I0
sbssg25
S"\xf4e\xb4'\x13\xd0\xb3+\xbcI\xf2\x15\x90\x90\x8c\xba"
p3162
ssS'_home_virtubuntu__local_lib_python2_7_site-packages_pyqtgraph_graphicsItems_BarGraphItem'
p3163
(dp3164
g6
(dp3165
g8
S'_home_virtubuntu__local_lib_python2_7_site-packages_pyqtgraph_graphicsItems_BarGraphItem.html'
p3166
sg10
S'/home/virtubuntu/.local/lib/python2.7/site-packages/pyqtgraph/graphicsItems/BarGraphItem'
p3167
sg12
g13
(g14
g15
NtRp3168
(dp3169
g18
I1
sg19
I0
sg20
I86
sg21
I0
sg22
I0
sg23
I75
sg24
I0
sbssg25
S'\xbdS\t\x976\x1dx\x07&\x83\xae\n\xd6R\xcc\xe3'
p3170
ssS'_opt_ros_indigo_lib_python2_7_dist-packages_qt_gui_perspective_manager'
p3171
(dp3172
g6
(dp3173
g8
S'_opt_ros_indigo_lib_python2_7_dist-packages_qt_gui_perspective_manager.html'
p3174
sg10
S'/opt/ros/indigo/lib/python2.7/dist-packages/qt_gui/perspective_manager'
p3175
sg12
g13
(g14
g15
NtRp3176
(dp3177
g18
I1
sg19
I0
sg20
I281
sg21
I0
sg22
I0
sg23
I169
sg24
I0
sbssg25
S'L\xdd\xb7\x18X\x1f+\xd0\x17*\x94\xa7\xb4\x15\xdc#'
p3178
ssS'_home_virtubuntu__local_lib_python2_7_site-packages_pyqtgraph_debug'
p3179
(dp3180
g6
(dp3181
g8
S'_home_virtubuntu__local_lib_python2_7_site-packages_pyqtgraph_debug.html'
p3182
sg10
S'/home/virtubuntu/.local/lib/python2.7/site-packages/pyqtgraph/debug'
p3183
sg12
g13
(g14
g15
NtRp3184
(dp3185
g18
I1
sg19
I0
sg20
I617
sg21
I0
sg22
I0
sg23
I542
sg24
I0
sbssg25
S'pP\x92:"\xc4J9\t\\t\xebz\xe8\x00F'
p3186
ssS'_opt_ros_indigo_lib_python2_7_dist-packages_genpy_base'
p3187
(dp3188
g6
(dp3189
g8
S'_opt_ros_indigo_lib_python2_7_dist-packages_genpy_base.html'
p3190
sg10
S'/opt/ros/indigo/lib/python2.7/dist-packages/genpy/base'
p3191
sg12
g13
(g14
g15
NtRp3192
(dp3193
g18
I1
sg19
I0
sg20
I4
sg21
I0
sg22
I0
sg23
I1
sg24
I0
sbssg25
S'X\xd6\xee\xc3\xa0N\x99E\xc6\xdd\xc5\xcdgM\xf1\x1c'
p3194
ssS'_opt_ros_indigo_lib_python2_7_dist-packages_std_msgs_msg__MultiArrayDimension'
p3195
(dp3196
g6
(dp3197
g8
S'_opt_ros_indigo_lib_python2_7_dist-packages_std_msgs_msg__MultiArrayDimension.html'
p3198
sg10
S'/opt/ros/indigo/lib/python2.7/dist-packages/std_msgs/msg/_MultiArrayDimension'
p3199
sg12
g13
(g14
g15
NtRp3200
(dp3201
g18
I1
sg19
I0
sg20
I91
sg21
I0
sg22
I0
sg23
I72
sg24
I0
sbssg25
S'\x8a\xd5\x05\x18\xe6\xddh\xcf\xf9\x07\x13\xcd\xa0c\xea8'
p3202
ssS'_opt_ros_indigo_lib_python2_7_dist-packages_qt_gui_help_provider'
p3203
(dp3204
g6
(dp3205
g8
S'_opt_ros_indigo_lib_python2_7_dist-packages_qt_gui_help_provider.html'
p3206
sg10
S'/opt/ros/indigo/lib/python2.7/dist-packages/qt_gui/help_provider'
p3207
sg12
g13
(g14
g15
NtRp3208
(dp3209
g18
I1
sg19
I0
sg20
I15
sg21
I0
sg22
I0
sg23
I7
sg24
I0
sbssg25
S' \\\x8b\xd1\xc4\x8a\xd3\xbb\x081\xe4K/\xb5\xd87'
p3210
ssS'_home_virtubuntu__local_lib_python2_7_site-packages_pyqtgraph_graphicsItems_GraphicsWidget'
p3211
(dp3212
g6
(dp3213
g8
S'_home_virtubuntu__local_lib_python2_7_site-packages_pyqtgraph_graphicsItems_GraphicsWidget.html'
p3214
sg10
S'/home/virtubuntu/.local/lib/python2.7/site-packages/pyqtgraph/graphicsItems/GraphicsWidget'
p3215
sg12
g13
(g14
g15
NtRp3216
(dp3217
g18
I1
sg19
I0
sg20
I26
sg21
I0
sg22
I0
sg23
I4
sg24
I0
sbssg25
S'\xe6\xcb2\xd1\xbe\x99^\xf3#I\x10\xa8\xff\x84\xf3\x14'
p3218
ssS'_home_virtubuntu_catkin_ws_src_arni_arni_gui_src_arni_gui_lru_cache'
p3219
(dp3220
g6
(dp3221
g8
S'_home_virtubuntu_catkin_ws_src_arni_arni_gui_src_arni_gui_lru_cache.html'
p3222
sg10
S'/home/virtubuntu/catkin_ws/src/arni/arni_gui/src/arni_gui/lru_cache'
p3223
sg12
g13
(g14
g15
NtRp3224
(dp3225
g18
I1
sg19
I0
sg20
I103
sg21
I0
sg22
I0
sg23
I49
sg24
I0
sbssg25
S'D:\x0eZM\x86\x9a\xe0\xb1\xff\xaa;\x9f\xb8\x1d`'
p3226
ssS'_home_virtubuntu_catkin_ws_devel_lib_python2_7_dist-packages_rqt_arni_gui_detail___init__'
p3227
(dp3228
g6
(dp3229
g8
S'_home_virtubuntu_catkin_ws_devel_lib_python2_7_dist-packages_rqt_arni_gui_detail___init__.html'
p3230
sg10
S'/home/virtubuntu/catkin_ws/devel/lib/python2.7/dist-packages/rqt_arni_gui_detail/__init__'
p3231
sg12
g13
(g14
g15
NtRp3232
(dp3233
g18
I1
sg19
I0
sg20
I28
sg21
I0
sg22
I0
sg23
I1
sg24
I0
sbssg25
S'Jk;\xdb\x1a\xca\xbdx\xdf\x1f\xcb\x86\xab\xa2\xf7\xd2'
p3234
ssS'_opt_ros_indigo_lib_python2_7_dist-packages_std_msgs_msg__UInt16'
p3235
(dp3236
g6
(dp3237
g8
S'_opt_ros_indigo_lib_python2_7_dist-packages_std_msgs_msg__UInt16.html'
p3238
sg10
S'/opt/ros/indigo/lib/python2.7/dist-packages/std_msgs/msg/_UInt16'
p3239
sg12
g13
(g14
g15
NtRp3240
(dp3241
g18
I1
sg19
I0
sg20
I49
sg21
I0
sg22
I0
sg23
I30
sg24
I0
sbssg25
S'\xf0\xf7\xe0\x12\x89}\xad\xc6v\xa9\x8e\xdb,\x0f$q'
p3242
ssS'_usr_local_lib_python2_7_dist-packages_numpy_lib_arraypad'
p3243
(dp3244
g6
(dp3245
g8
S'_usr_local_lib_python2_7_dist-packages_numpy_lib_arraypad.html'
p3246
sg10
S'/usr/local/lib/python2.7/dist-packages/numpy/lib/arraypad'
p3247
sg12
g13
(g14
g15
NtRp3248
(dp3249
g18
I1
sg19
I0
sg20
I383
sg21
I0
sg22
I0
sg23
I357
sg24
I0
sbssg25
S'Nh\x94\xe2\x16\xc1\xbafR\x86S\xd2\x1f\x8a\x11N'
p3250
ssS'_usr_local_lib_python2_7_dist-packages_numpy_lib_format'
p3251
(dp3252
g6
(dp3253
g8
S'_usr_local_lib_python2_7_dist-packages_numpy_lib_format.html'
p3254
sg10
S'/usr/local/lib/python2.7/dist-packages/numpy/lib/format'
p3255
sg12
g13
(g14
g15
NtRp3256
(dp3257
g18
I1
sg19
I0
sg20
I178
sg21
I0
sg22
I0
sg23
I157
sg24
I0
sbssg25
S'\xe7\x89\xbc\xd8()(\xc6\xb9wF\x82qK`\xb5'
p3258
ssS'_usr_share_pyshared_rospkg_manifest'
p3259
(dp3260
g6
(dp3261
g8
S'_usr_share_pyshared_rospkg_manifest.html'
p3262
sg10
S'/usr/share/pyshared/rospkg/manifest'
p3263
sg12
g13
(g14
g15
NtRp3264
(dp3265
g18
I1
sg19
I0
sg20
I254
sg21
I0
sg22
I0
sg23
I206
sg24
I0
sbssg25
S'c@\xc9w\xae%;\xc7ODBG\xa2\xect\xd5'
p3266
ssS'_opt_ros_indigo_lib_python2_7_dist-packages_roscpp_srv__GetLoggers'
p3267
(dp3268
g6
(dp3269
g8
S'_opt_ros_indigo_lib_python2_7_dist-packages_roscpp_srv__GetLoggers.html'
p3270
sg10
S'/opt/ros/indigo/lib/python2.7/dist-packages/roscpp/srv/_GetLoggers'
p3271
sg12
g13
(g14
g15
NtRp3272
(dp3273
g18
I1
sg19
I0
sg20
I173
sg21
I0
sg22
I0
sg23
I131
sg24
I0
sbssg25
S',\x8b\xd5i\x90\x13QP\xe3l\n<\xc7\x17Zw'
p3274
ssS'_opt_ros_indigo_lib_python2_7_dist-packages_qt_gui_cpp_cpp_binding_helper'
p3275
(dp3276
g6
(dp3277
g8
S'_opt_ros_indigo_lib_python2_7_dist-packages_qt_gui_cpp_cpp_binding_helper.html'
p3278
sg10
S'/opt/ros/indigo/lib/python2.7/dist-packages/qt_gui_cpp/cpp_binding_helper'
p3279
sg12
g13
(g14
g15
NtRp3280
(dp3281
g18
I1
sg19
I0
sg20
I14
sg21
I0
sg22
I0
sg23
I6
sg24
I0
sbssg25
S'\x17\xd5?\xa1\xdc\x051z\xcf\x00\x03\xdb\x18G,\x0f'
p3282
ssS'_usr_local_lib_python2_7_dist-packages_numpy_lib_npyio'
p3283
(dp3284
g6
(dp3285
g8
S'_usr_local_lib_python2_7_dist-packages_numpy_lib_npyio.html'
p3286
sg10
S'/usr/local/lib/python2.7/dist-packages/numpy/lib/npyio'
p3287
sg12
g13
(g14
g15
NtRp3288
(dp3289
g18
I1
sg19
I0
sg20
I729
sg21
I0
sg22
I0
sg23
I676
sg24
I0
sbssg25
S';\x12\xa9\xd1\x87Q\x86\x1c\x1cT\x92!\x8c\x14ac'
p3290
ssS'_usr_local_lib_python2_7_dist-packages_numpy_lib_stride_tricks'
p3291
(dp3292
g6
(dp3293
g8
S'_usr_local_lib_python2_7_dist-packages_numpy_lib_stride_tricks.html'
p3294
sg10
S'/usr/local/lib/python2.7/dist-packages/numpy/lib/stride_tricks'
p3295
sg12
g13
(g14
g15
NtRp3296
(dp3297
g18
I1
sg19
I0
sg20
I48
sg21
I0
sg22
I0
sg23
I41
sg24
I0
sbssg25
S"e''V\xb1\xe8Z\x8d6~\x18\x8f\x83\xcab\x80"
p3298
ssS'_opt_ros_indigo_lib_python2_7_dist-packages_qt_gui_window_changed_signaler'
p3299
(dp3300
g6
(dp3301
g8
S'_opt_ros_indigo_lib_python2_7_dist-packages_qt_gui_window_changed_signaler.html'
p3302
sg10
S'/opt/ros/indigo/lib/python2.7/dist-packages/qt_gui/window_changed_signaler'
p3303
sg12
g13
(g14
g15
NtRp3304
(dp3305
g18
I1
sg19
I0
sg20
I34
sg21
I0
sg22
I0
sg23
I1
sg24
I0
sbssg25
S'\xa4\xa3\x8c\xc4>7E\xe3\ns\xa07Wz\x0b\x90'
p3306
ssS'_usr_local_lib_python2_7_dist-packages_numpy_distutils_system_info'
p3307
(dp3308
g6
(dp3309
g8
S'_usr_local_lib_python2_7_dist-packages_numpy_distutils_system_info.html'
p3310
sg10
S'/usr/local/lib/python2.7/dist-packages/numpy/distutils/system_info'
p3311
sg12
g13
(g14
g15
NtRp3312
(dp3313
g18
I1
sg19
I0
sg20
I1299
sg21
I0
sg22
I0
sg23
I975
sg24
I0
sbssg25
S'ny\x11\xd2\xfa\xbaU@\xc6\xa9\xf5\xd2\x0f_\x04\x94'
p3314
ssS'_opt_ros_indigo_lib_python2_7_dist-packages_std_msgs_msg__Int16'
p3315
(dp3316
g6
(dp3317
g8
S'_opt_ros_indigo_lib_python2_7_dist-packages_std_msgs_msg__Int16.html'
p3318
sg10
S'/opt/ros/indigo/lib/python2.7/dist-packages/std_msgs/msg/_Int16'
p3319
sg12
g13
(g14
g15
NtRp3320
(dp3321
g18
I1
sg19
I0
sg20
I49
sg21
I0
sg22
I0
sg23
I30
sg24
I0
sbssg25
S"\xe2M\x87\xc2\xc1\xc0\xb9%\xc1\x01'\xbe\xeeu\xef^"
p3322
ssS'_usr_local_lib_python2_7_dist-packages_numpy_fft___init__'
p3323
(dp3324
g6
(dp3325
g8
S'_usr_local_lib_python2_7_dist-packages_numpy_fft___init__.html'
p3326
sg10
S'/usr/local/lib/python2.7/dist-packages/numpy/fft/__init__'
p3327
sg12
g13
(g14
g15
NtRp3328
(dp3329
g18
I1
sg19
I0
sg20
I7
sg21
I0
sg22
I0
sg23
I0
sg24
I0
sbssg25
S'\xfb\xf3+<\xef\t\xf7G\x9f:\xbe(\x1fL\x1f_'
p3330
ssS'_opt_ros_indigo_lib_python2_7_dist-packages_rospy_service'
p3331
(dp3332
g6
(dp3333
g8
S'_opt_ros_indigo_lib_python2_7_dist-packages_rospy_service.html'
p3334
sg10
S'/opt/ros/indigo/lib/python2.7/dist-packages/rospy/service'
p3335
sg12
g13
(g14
g15
NtRp3336
(dp3337
g18
I1
sg19
I0
sg20
I50
sg21
I0
sg22
I0
sg23
I11
sg24
I0
sbssg25
S'\x83\x81\xac\xb6/fH\xa0\xa0\x7f\xf6[\x9d\xfe5\xe6'
p3338
ssS'_usr_local_lib_python2_7_dist-packages_numpy_version'
p3339
(dp3340
g6
(dp3341
g8
S'_usr_local_lib_python2_7_dist-packages_numpy_version.html'
p3342
sg10
S'/usr/local/lib/python2.7/dist-packages/numpy/version'
p3343
sg12
g13
(g14
g15
NtRp3344
(dp3345
g18
I1
sg19
I0
sg20
I7
sg21
I0
sg22
I0
sg23
I1
sg24
I0
sbssg25
S'm\xf4)}\x0c^\x95\xa0\x97ML\x18\x9e9*8'
p3346
ssS'_opt_ros_indigo_lib_python2_7_dist-packages_rospy_impl___init__'
p3347
(dp3348
g6
(dp3349
g8
S'_opt_ros_indigo_lib_python2_7_dist-packages_rospy_impl___init__.html'
p3350
sg10
S'/opt/ros/indigo/lib/python2.7/dist-packages/rospy/impl/__init__'
p3351
sg12
g13
(g14
g15
NtRp3352
(dp3353
g18
I1
sg19
I0
sg20
I0
sg21
I0
sg22
I0
sg23
I0
sg24
I0
sbssg25
S'\xca\xf5\x9f\x7f\x88\xdfa\x831|T\x1d\xbc}\xa5v'
p3354
ssS'_usr_local_lib_python2_7_dist-packages_numpy_oldnumeric_array_printer'
p3355
(dp3356
g6
(dp3357
g8
S'_usr_local_lib_python2_7_dist-packages_numpy_oldnumeric_array_printer.html'
p3358
sg10
S'/usr/local/lib/python2.7/dist-packages/numpy/oldnumeric/array_printer'
p3359
sg12
g13
(g14
g15
NtRp3360
(dp3361
g18
I1
sg19
I0
sg20
I10
sg21
I0
sg22
I0
sg23
I6
sg24
I0
sbssg25
S'\\\xe7\xa5^\xde1\xe7\x06U\xefi\x95"\xc0j\xc4'
p3362
ssS'_usr_local_lib_python2_7_dist-packages_numpy_add_newdocs'
p3363
(dp3364
g6
(dp3365
g8
S'_usr_local_lib_python2_7_dist-packages_numpy_add_newdocs.html'
p3366
sg10
S'/usr/local/lib/python2.7/dist-packages/numpy/add_newdocs'
p3367
sg12
g13
(g14
g15
NtRp3368
(dp3369
g18
I1
sg19
I0
sg20
I275
sg21
I0
sg22
I0
sg23
I0
sg24
I0
sbssg25
S'\xb8j\x1b\xa1\xbd\x06\xc6\xa9\xbb\x88\t\x90\xe1\x16-\x0c'
p3370
ssS'_opt_ros_indigo_lib_python2_7_dist-packages_std_msgs_msg__Int64'
p3371
(dp3372
g6
(dp3373
g8
S'_opt_ros_indigo_lib_python2_7_dist-packages_std_msgs_msg__Int64.html'
p3374
sg10
S'/opt/ros/indigo/lib/python2.7/dist-packages/std_msgs/msg/_Int64'
p3375
sg12
g13
(g14
g15
NtRp3376
(dp3377
g18
I1
sg19
I0
sg20
I49
sg21
I0
sg22
I0
sg23
I30
sg24
I0
sbssg25
S'ZML\xc8\x93!\x1d\xf6\xb0\x865\xb7\xad*z@'
p3378
ssS'_opt_ros_indigo_lib_python2_7_dist-packages_roscpp_srv__SetLoggerLevel'
p3379
(dp3380
g6
(dp3381
g8
S'_opt_ros_indigo_lib_python2_7_dist-packages_roscpp_srv__SetLoggerLevel.html'
p3382
sg10
S'/opt/ros/indigo/lib/python2.7/dist-packages/roscpp/srv/_SetLoggerLevel'
p3383
sg12
g13
(g14
g15
NtRp3384
(dp3385
g18
I1
sg19
I0
sg20
I151
sg21
I0
sg22
I0
sg23
I110
sg24
I0
sbssg25
S'\x0b\xf7!\x1dB\xed\xc09z\x82\x03v\xdb\xcb\xad\x1f'
p3386
ssS'_usr_local_lib_python2_7_dist-packages_numpy_testing___init__'
p3387
(dp3388
g6
(dp3389
g8
S'_usr_local_lib_python2_7_dist-packages_numpy_testing___init__.html'
p3390
sg10
S'/usr/local/lib/python2.7/dist-packages/numpy/testing/__init__'
p3391
sg12
g13
(g14
g15
NtRp3392
(dp3393
g18
I1
sg19
I0
sg20
I8
sg21
I0
sg22
I0
sg23
I0
sg24
I0
sbssg25
S'\t\x9b\xc2\xa9AKc\x96\xd1\xd1Vj\x9e\x0e>\x0f'
p3394
ssS'_opt_ros_indigo_lib_python2_7_dist-packages_std_msgs_msg__Float64'
p3395
(dp3396
g6
(dp3397
g8
S'_opt_ros_indigo_lib_python2_7_dist-packages_std_msgs_msg__Float64.html'
p3398
sg10
S'/opt/ros/indigo/lib/python2.7/dist-packages/std_msgs/msg/_Float64'
p3399
sg12
g13
(g14
g15
NtRp3400
(dp3401
g18
I1
sg19
I0
sg20
I49
sg21
I0
sg22
I0
sg23
I30
sg24
I0
sbssg25
S'\xd8\x1a\x7f\xa9a\xad\x10j\xb8\xbf\xac\xe3\x1a o\x92'
p3402
ssS'_usr_local_lib_python2_7_dist-packages_numpy_distutils_misc_util'
p3403
(dp3404
g6
(dp3405
g8
S'_usr_local_lib_python2_7_dist-packages_numpy_distutils_misc_util.html'
p3406
sg10
S'/usr/local/lib/python2.7/dist-packages/numpy/distutils/misc_util'
p3407
sg12
g13
(g14
g15
NtRp3408
(dp3409
g18
I1
sg19
I0
sg20
I1149
sg21
I0
sg22
I0
sg23
I1006
sg24
I0
sbssg25
S'\x83\x93\x94v\x0b]\xba)c\xff\x8c\xfdc\xa5\xdf\xd0'
p3410
ssS'_home_virtubuntu__local_lib_python2_7_site-packages_pyqtgraph_parametertree___init__'
p3411
(dp3412
g6
(dp3413
g8
S'_home_virtubuntu__local_lib_python2_7_site-packages_pyqtgraph_parametertree___init__.html'
p3414
sg10
S'/home/virtubuntu/.local/lib/python2.7/site-packages/pyqtgraph/parametertree/__init__'
p3415
sg12
g13
(g14
g15
NtRp3416
(dp3417
g18
I1
sg19
I0
sg20
I4
sg21
I0
sg22
I0
sg23
I0
sg24
I0
sbssg25
S'\xeaP\x8aQ\xb1\xce\xb5}\x8d\x99\xd68\xb5\xa4\xb8\x07'
p3418
ssS'_opt_ros_indigo_lib_python2_7_dist-packages_std_msgs___init__'
p3419
(dp3420
g6
(dp3421
g8
S'_opt_ros_indigo_lib_python2_7_dist-packages_std_msgs___init__.html'
p3422
sg10
S'/opt/ros/indigo/lib/python2.7/dist-packages/std_msgs/__init__'
p3423
sg12
g13
(g14
g15
NtRp3424
(dp3425
g18
I1
sg19
I0
sg20
I0
sg21
I0
sg22
I0
sg23
I0
sg24
I0
sbssg25
S'\xca\xf5\x9f\x7f\x88\xdfa\x831|T\x1d\xbc}\xa5v'
p3426
ssS'_usr_local_lib_python2_7_dist-packages_numpy_core_shape_base'
p3427
(dp3428
g6
(dp3429
g8
S'_usr_local_lib_python2_7_dist-packages_numpy_core_shape_base.html'
p3430
sg10
S'/usr/local/lib/python2.7/dist-packages/numpy/core/shape_base'
p3431
sg12
g13
(g14
g15
NtRp3432
(dp3433
g18
I1
sg19
I0
sg20
I50
sg21
I0
sg22
I0
sg23
I41
sg24
I0
sbssg25
S'\xdd\x16n\x83\x83&\xdb\x81\x96\xa0\xab|S\xeb\x7f\x83'
p3434
ssS'_usr_local_lib_python2_7_dist-packages_numpy_core_function_base'
p3435
(dp3436
g6
(dp3437
g8
S'_usr_local_lib_python2_7_dist-packages_numpy_core_function_base.html'
p3438
sg10
S'/usr/local/lib/python2.7/dist-packages/numpy/core/function_base'
p3439
sg12
g13
(g14
g15
NtRp3440
(dp3441
g18
I1
sg19
I0
sg20
I24
sg21
I0
sg22
I0
sg23
I18
sg24
I0
sbssg25
S')\x99\x13b\x05\x8a)_\x9c\x8c\x030P\x11\x9a\x92'
p3442
ssS'_usr_local_lib_python2_7_dist-packages_numpy_distutils_command_build_ext'
p3443
(dp3444
g6
(dp3445
g8
S'_usr_local_lib_python2_7_dist-packages_numpy_distutils_command_build_ext.html'
p3446
sg10
S'/usr/local/lib/python2.7/dist-packages/numpy/distutils/command/build_ext'
p3447
sg12
g13
(g14
g15
NtRp3448
(dp3449
g18
I1
sg19
I0
sg20
I309
sg21
I0
sg22
I0
sg23
I281
sg24
I0
sbssg25
S'i\xd1\xfc\xf8\x80Z\x82\xb8]\xaf=\xe7\x15\x11\xec\xb8'
p3450
ssS'_opt_ros_indigo_lib_python2_7_dist-packages_genmsg_gentools'
p3451
(dp3452
g6
(dp3453
g8
S'_opt_ros_indigo_lib_python2_7_dist-packages_genmsg_gentools.html'
p3454
sg10
S'/opt/ros/indigo/lib/python2.7/dist-packages/genmsg/gentools'
p3455
sg12
g13
(g14
g15
NtRp3456
(dp3457
g18
I1
sg19
I0
sg20
I63
sg21
I0
sg22
I0
sg23
I45
sg24
I0
sbssg25
S'K\xc8\xe3\x9f\xcf\xa1,%r\x11y$9\x15\x11c'
p3458
sssS'version'
p3459
S'3.7.1'
p3460
sS'settings'
p3461
S'\x98\xa8x\xfe"r\xb5K\x98\xb1N\\\x99\x9e\xf3\xe5'
p3462
sS'format'
p3463
I1
s.